

Microchip Technology PIC LITE Macro Assembler V1.34 build -361300703 
                                                                                               Tue May 14 10:03:00 2024

Microchip Technology Omniscient Code Generator (Lite mode) build 201502162209
     1                           	processor	16F1829
     2                           	opt	pw 120
     3                           	opt	lm
     4                           	psect	idataBANK0,global,class=CODE,delta=2
     5                           	psect	nvBANK0,global,class=BANK0,space=1,delta=1
     6                           	psect	cinit,global,class=CODE,merge=1,delta=2
     7                           	psect	bssCOMMON,global,class=COMMON,space=1,delta=1
     8                           	psect	bssBANK0,global,class=BANK0,space=1,delta=1
     9                           	psect	dataBANK0,global,class=BANK0,space=1,delta=1
    10                           	psect	inittext,global,class=CODE,delta=2
    11                           	psect	cstackCOMMON,global,class=COMMON,space=1,delta=1
    12                           	psect	cstackBANK0,global,class=BANK0,space=1,delta=1
    13                           	psect	maintext,global,class=CODE,merge=1,split=1,delta=2
    14                           	psect	text1,local,class=CODE,merge=1,delta=2
    15                           	psect	text2,local,class=CODE,merge=1,delta=2
    16                           	psect	text3,local,class=CODE,merge=1,delta=2
    17                           	psect	text4,local,class=CODE,merge=1,delta=2
    18                           	psect	text5,local,class=CODE,merge=1,delta=2
    19                           	psect	text6,local,class=CODE,merge=1,delta=2
    20                           	psect	text7,local,class=CODE,merge=1,delta=2
    21                           	psect	text8,local,class=CODE,merge=1,delta=2
    22                           	psect	text9,local,class=CODE,merge=1,delta=2
    23                           	psect	intentry,global,class=CODE,delta=2
    24                           	psect	text11,local,class=CODE,merge=1,delta=2
    25                           	dabs	1,0x7E,2
    26  0000                     	;# 
    27  0001                     	;# 
    28  0002                     	;# 
    29  0003                     	;# 
    30  0004                     	;# 
    31  0005                     	;# 
    32  0006                     	;# 
    33  0007                     	;# 
    34  0008                     	;# 
    35  0009                     	;# 
    36  000A                     	;# 
    37  000B                     	;# 
    38  000C                     	;# 
    39  000D                     	;# 
    40  000E                     	;# 
    41  0011                     	;# 
    42  0012                     	;# 
    43  0013                     	;# 
    44  0014                     	;# 
    45  0015                     	;# 
    46  0016                     	;# 
    47  0016                     	;# 
    48  0017                     	;# 
    49  0018                     	;# 
    50  0019                     	;# 
    51  001A                     	;# 
    52  001B                     	;# 
    53  001C                     	;# 
    54  001E                     	;# 
    55  001F                     	;# 
    56  008C                     	;# 
    57  008D                     	;# 
    58  008E                     	;# 
    59  0091                     	;# 
    60  0092                     	;# 
    61  0093                     	;# 
    62  0094                     	;# 
    63  0095                     	;# 
    64  0096                     	;# 
    65  0097                     	;# 
    66  0098                     	;# 
    67  0099                     	;# 
    68  009A                     	;# 
    69  009B                     	;# 
    70  009B                     	;# 
    71  009C                     	;# 
    72  009D                     	;# 
    73  009E                     	;# 
    74  010C                     	;# 
    75  010D                     	;# 
    76  010E                     	;# 
    77  0111                     	;# 
    78  0112                     	;# 
    79  0113                     	;# 
    80  0114                     	;# 
    81  0115                     	;# 
    82  0116                     	;# 
    83  0117                     	;# 
    84  0118                     	;# 
    85  0119                     	;# 
    86  011A                     	;# 
    87  011B                     	;# 
    88  011D                     	;# 
    89  011E                     	;# 
    90  018C                     	;# 
    91  018D                     	;# 
    92  018E                     	;# 
    93  0191                     	;# 
    94  0191                     	;# 
    95  0192                     	;# 
    96  0193                     	;# 
    97  0193                     	;# 
    98  0193                     	;# 
    99  0194                     	;# 
   100  0195                     	;# 
   101  0196                     	;# 
   102  0199                     	;# 
   103  019A                     	;# 
   104  019B                     	;# 
   105  019B                     	;# 
   106  019C                     	;# 
   107  019D                     	;# 
   108  019E                     	;# 
   109  019F                     	;# 
   110  020C                     	;# 
   111  020D                     	;# 
   112  020E                     	;# 
   113  0211                     	;# 
   114  0211                     	;# 
   115  0212                     	;# 
   116  0212                     	;# 
   117  0213                     	;# 
   118  0213                     	;# 
   119  0214                     	;# 
   120  0214                     	;# 
   121  0215                     	;# 
   122  0215                     	;# 
   123  0215                     	;# 
   124  0216                     	;# 
   125  0216                     	;# 
   126  0217                     	;# 
   127  0217                     	;# 
   128  0219                     	;# 
   129  021A                     	;# 
   130  021B                     	;# 
   131  021C                     	;# 
   132  021D                     	;# 
   133  021E                     	;# 
   134  021F                     	;# 
   135  0291                     	;# 
   136  0291                     	;# 
   137  0292                     	;# 
   138  0293                     	;# 
   139  0294                     	;# 
   140  0295                     	;# 
   141  0295                     	;# 
   142  0296                     	;# 
   143  0298                     	;# 
   144  0298                     	;# 
   145  0299                     	;# 
   146  029A                     	;# 
   147  029B                     	;# 
   148  029C                     	;# 
   149  029D                     	;# 
   150  029E                     	;# 
   151  0311                     	;# 
   152  0311                     	;# 
   153  0312                     	;# 
   154  0313                     	;# 
   155  0318                     	;# 
   156  0318                     	;# 
   157  0319                     	;# 
   158  031A                     	;# 
   159  038C                     	;# 
   160  038D                     	;# 
   161  038E                     	;# 
   162  0391                     	;# 
   163  0392                     	;# 
   164  0393                     	;# 
   165  0394                     	;# 
   166  0395                     	;# 
   167  0396                     	;# 
   168  039A                     	;# 
   169  039C                     	;# 
   170  039D                     	;# 
   171  039E                     	;# 
   172  039F                     	;# 
   173  0415                     	;# 
   174  0416                     	;# 
   175  0417                     	;# 
   176  041C                     	;# 
   177  041D                     	;# 
   178  041E                     	;# 
   179  0FE4                     	;# 
   180  0FE5                     	;# 
   181  0FE6                     	;# 
   182  0FE7                     	;# 
   183  0FE8                     	;# 
   184  0FE9                     	;# 
   185  0FEA                     	;# 
   186  0FEB                     	;# 
   187  0FED                     	;# 
   188  0FEE                     	;# 
   189  0FEF                     	;# 
   190  0000                     	;# 
   191  0001                     	;# 
   192  0002                     	;# 
   193  0003                     	;# 
   194  0004                     	;# 
   195  0005                     	;# 
   196  0006                     	;# 
   197  0007                     	;# 
   198  0008                     	;# 
   199  0009                     	;# 
   200  000A                     	;# 
   201  000B                     	;# 
   202  000C                     	;# 
   203  000D                     	;# 
   204  000E                     	;# 
   205  0011                     	;# 
   206  0012                     	;# 
   207  0013                     	;# 
   208  0014                     	;# 
   209  0015                     	;# 
   210  0016                     	;# 
   211  0016                     	;# 
   212  0017                     	;# 
   213  0018                     	;# 
   214  0019                     	;# 
   215  001A                     	;# 
   216  001B                     	;# 
   217  001C                     	;# 
   218  001E                     	;# 
   219  001F                     	;# 
   220  008C                     	;# 
   221  008D                     	;# 
   222  008E                     	;# 
   223  0091                     	;# 
   224  0092                     	;# 
   225  0093                     	;# 
   226  0094                     	;# 
   227  0095                     	;# 
   228  0096                     	;# 
   229  0097                     	;# 
   230  0098                     	;# 
   231  0099                     	;# 
   232  009A                     	;# 
   233  009B                     	;# 
   234  009B                     	;# 
   235  009C                     	;# 
   236  009D                     	;# 
   237  009E                     	;# 
   238  010C                     	;# 
   239  010D                     	;# 
   240  010E                     	;# 
   241  0111                     	;# 
   242  0112                     	;# 
   243  0113                     	;# 
   244  0114                     	;# 
   245  0115                     	;# 
   246  0116                     	;# 
   247  0117                     	;# 
   248  0118                     	;# 
   249  0119                     	;# 
   250  011A                     	;# 
   251  011B                     	;# 
   252  011D                     	;# 
   253  011E                     	;# 
   254  018C                     	;# 
   255  018D                     	;# 
   256  018E                     	;# 
   257  0191                     	;# 
   258  0191                     	;# 
   259  0192                     	;# 
   260  0193                     	;# 
   261  0193                     	;# 
   262  0193                     	;# 
   263  0194                     	;# 
   264  0195                     	;# 
   265  0196                     	;# 
   266  0199                     	;# 
   267  019A                     	;# 
   268  019B                     	;# 
   269  019B                     	;# 
   270  019C                     	;# 
   271  019D                     	;# 
   272  019E                     	;# 
   273  019F                     	;# 
   274  020C                     	;# 
   275  020D                     	;# 
   276  020E                     	;# 
   277  0211                     	;# 
   278  0211                     	;# 
   279  0212                     	;# 
   280  0212                     	;# 
   281  0213                     	;# 
   282  0213                     	;# 
   283  0214                     	;# 
   284  0214                     	;# 
   285  0215                     	;# 
   286  0215                     	;# 
   287  0215                     	;# 
   288  0216                     	;# 
   289  0216                     	;# 
   290  0217                     	;# 
   291  0217                     	;# 
   292  0219                     	;# 
   293  021A                     	;# 
   294  021B                     	;# 
   295  021C                     	;# 
   296  021D                     	;# 
   297  021E                     	;# 
   298  021F                     	;# 
   299  0291                     	;# 
   300  0291                     	;# 
   301  0292                     	;# 
   302  0293                     	;# 
   303  0294                     	;# 
   304  0295                     	;# 
   305  0295                     	;# 
   306  0296                     	;# 
   307  0298                     	;# 
   308  0298                     	;# 
   309  0299                     	;# 
   310  029A                     	;# 
   311  029B                     	;# 
   312  029C                     	;# 
   313  029D                     	;# 
   314  029E                     	;# 
   315  0311                     	;# 
   316  0311                     	;# 
   317  0312                     	;# 
   318  0313                     	;# 
   319  0318                     	;# 
   320  0318                     	;# 
   321  0319                     	;# 
   322  031A                     	;# 
   323  038C                     	;# 
   324  038D                     	;# 
   325  038E                     	;# 
   326  0391                     	;# 
   327  0392                     	;# 
   328  0393                     	;# 
   329  0394                     	;# 
   330  0395                     	;# 
   331  0396                     	;# 
   332  039A                     	;# 
   333  039C                     	;# 
   334  039D                     	;# 
   335  039E                     	;# 
   336  039F                     	;# 
   337  0415                     	;# 
   338  0416                     	;# 
   339  0417                     	;# 
   340  041C                     	;# 
   341  041D                     	;# 
   342  041E                     	;# 
   343  0FE4                     	;# 
   344  0FE5                     	;# 
   345  0FE6                     	;# 
   346  0FE7                     	;# 
   347  0FE8                     	;# 
   348  0FE9                     	;# 
   349  0FEA                     	;# 
   350  0FEB                     	;# 
   351  0FED                     	;# 
   352  0FEE                     	;# 
   353  0FEF                     	;# 
   354  0000                     	;# 
   355  0001                     	;# 
   356  0002                     	;# 
   357  0003                     	;# 
   358  0004                     	;# 
   359  0005                     	;# 
   360  0006                     	;# 
   361  0007                     	;# 
   362  0008                     	;# 
   363  0009                     	;# 
   364  000A                     	;# 
   365  000B                     	;# 
   366  000C                     	;# 
   367  000D                     	;# 
   368  000E                     	;# 
   369  0011                     	;# 
   370  0012                     	;# 
   371  0013                     	;# 
   372  0014                     	;# 
   373  0015                     	;# 
   374  0016                     	;# 
   375  0016                     	;# 
   376  0017                     	;# 
   377  0018                     	;# 
   378  0019                     	;# 
   379  001A                     	;# 
   380  001B                     	;# 
   381  001C                     	;# 
   382  001E                     	;# 
   383  001F                     	;# 
   384  008C                     	;# 
   385  008D                     	;# 
   386  008E                     	;# 
   387  0091                     	;# 
   388  0092                     	;# 
   389  0093                     	;# 
   390  0094                     	;# 
   391  0095                     	;# 
   392  0096                     	;# 
   393  0097                     	;# 
   394  0098                     	;# 
   395  0099                     	;# 
   396  009A                     	;# 
   397  009B                     	;# 
   398  009B                     	;# 
   399  009C                     	;# 
   400  009D                     	;# 
   401  009E                     	;# 
   402  010C                     	;# 
   403  010D                     	;# 
   404  010E                     	;# 
   405  0111                     	;# 
   406  0112                     	;# 
   407  0113                     	;# 
   408  0114                     	;# 
   409  0115                     	;# 
   410  0116                     	;# 
   411  0117                     	;# 
   412  0118                     	;# 
   413  0119                     	;# 
   414  011A                     	;# 
   415  011B                     	;# 
   416  011D                     	;# 
   417  011E                     	;# 
   418  018C                     	;# 
   419  018D                     	;# 
   420  018E                     	;# 
   421  0191                     	;# 
   422  0191                     	;# 
   423  0192                     	;# 
   424  0193                     	;# 
   425  0193                     	;# 
   426  0193                     	;# 
   427  0194                     	;# 
   428  0195                     	;# 
   429  0196                     	;# 
   430  0199                     	;# 
   431  019A                     	;# 
   432  019B                     	;# 
   433  019B                     	;# 
   434  019C                     	;# 
   435  019D                     	;# 
   436  019E                     	;# 
   437  019F                     	;# 
   438  020C                     	;# 
   439  020D                     	;# 
   440  020E                     	;# 
   441  0211                     	;# 
   442  0211                     	;# 
   443  0212                     	;# 
   444  0212                     	;# 
   445  0213                     	;# 
   446  0213                     	;# 
   447  0214                     	;# 
   448  0214                     	;# 
   449  0215                     	;# 
   450  0215                     	;# 
   451  0215                     	;# 
   452  0216                     	;# 
   453  0216                     	;# 
   454  0217                     	;# 
   455  0217                     	;# 
   456  0219                     	;# 
   457  021A                     	;# 
   458  021B                     	;# 
   459  021C                     	;# 
   460  021D                     	;# 
   461  021E                     	;# 
   462  021F                     	;# 
   463  0291                     	;# 
   464  0291                     	;# 
   465  0292                     	;# 
   466  0293                     	;# 
   467  0294                     	;# 
   468  0295                     	;# 
   469  0295                     	;# 
   470  0296                     	;# 
   471  0298                     	;# 
   472  0298                     	;# 
   473  0299                     	;# 
   474  029A                     	;# 
   475  029B                     	;# 
   476  029C                     	;# 
   477  029D                     	;# 
   478  029E                     	;# 
   479  0311                     	;# 
   480  0311                     	;# 
   481  0312                     	;# 
   482  0313                     	;# 
   483  0318                     	;# 
   484  0318                     	;# 
   485  0319                     	;# 
   486  031A                     	;# 
   487  038C                     	;# 
   488  038D                     	;# 
   489  038E                     	;# 
   490  0391                     	;# 
   491  0392                     	;# 
   492  0393                     	;# 
   493  0394                     	;# 
   494  0395                     	;# 
   495  0396                     	;# 
   496  039A                     	;# 
   497  039C                     	;# 
   498  039D                     	;# 
   499  039E                     	;# 
   500  039F                     	;# 
   501  0415                     	;# 
   502  0416                     	;# 
   503  0417                     	;# 
   504  041C                     	;# 
   505  041D                     	;# 
   506  041E                     	;# 
   507  0FE4                     	;# 
   508  0FE5                     	;# 
   509  0FE6                     	;# 
   510  0FE7                     	;# 
   511  0FE8                     	;# 
   512  0FE9                     	;# 
   513  0FEA                     	;# 
   514  0FEB                     	;# 
   515  0FED                     	;# 
   516  0FEE                     	;# 
   517  0FEF                     	;# 
   518  0000                     	;# 
   519  0001                     	;# 
   520  0002                     	;# 
   521  0003                     	;# 
   522  0004                     	;# 
   523  0005                     	;# 
   524  0006                     	;# 
   525  0007                     	;# 
   526  0008                     	;# 
   527  0009                     	;# 
   528  000A                     	;# 
   529  000B                     	;# 
   530  000C                     	;# 
   531  000D                     	;# 
   532  000E                     	;# 
   533  0011                     	;# 
   534  0012                     	;# 
   535  0013                     	;# 
   536  0014                     	;# 
   537  0015                     	;# 
   538  0016                     	;# 
   539  0016                     	;# 
   540  0017                     	;# 
   541  0018                     	;# 
   542  0019                     	;# 
   543  001A                     	;# 
   544  001B                     	;# 
   545  001C                     	;# 
   546  001E                     	;# 
   547  001F                     	;# 
   548  008C                     	;# 
   549  008D                     	;# 
   550  008E                     	;# 
   551  0091                     	;# 
   552  0092                     	;# 
   553  0093                     	;# 
   554  0094                     	;# 
   555  0095                     	;# 
   556  0096                     	;# 
   557  0097                     	;# 
   558  0098                     	;# 
   559  0099                     	;# 
   560  009A                     	;# 
   561  009B                     	;# 
   562  009B                     	;# 
   563  009C                     	;# 
   564  009D                     	;# 
   565  009E                     	;# 
   566  010C                     	;# 
   567  010D                     	;# 
   568  010E                     	;# 
   569  0111                     	;# 
   570  0112                     	;# 
   571  0113                     	;# 
   572  0114                     	;# 
   573  0115                     	;# 
   574  0116                     	;# 
   575  0117                     	;# 
   576  0118                     	;# 
   577  0119                     	;# 
   578  011A                     	;# 
   579  011B                     	;# 
   580  011D                     	;# 
   581  011E                     	;# 
   582  018C                     	;# 
   583  018D                     	;# 
   584  018E                     	;# 
   585  0191                     	;# 
   586  0191                     	;# 
   587  0192                     	;# 
   588  0193                     	;# 
   589  0193                     	;# 
   590  0193                     	;# 
   591  0194                     	;# 
   592  0195                     	;# 
   593  0196                     	;# 
   594  0199                     	;# 
   595  019A                     	;# 
   596  019B                     	;# 
   597  019B                     	;# 
   598  019C                     	;# 
   599  019D                     	;# 
   600  019E                     	;# 
   601  019F                     	;# 
   602  020C                     	;# 
   603  020D                     	;# 
   604  020E                     	;# 
   605  0211                     	;# 
   606  0211                     	;# 
   607  0212                     	;# 
   608  0212                     	;# 
   609  0213                     	;# 
   610  0213                     	;# 
   611  0214                     	;# 
   612  0214                     	;# 
   613  0215                     	;# 
   614  0215                     	;# 
   615  0215                     	;# 
   616  0216                     	;# 
   617  0216                     	;# 
   618  0217                     	;# 
   619  0217                     	;# 
   620  0219                     	;# 
   621  021A                     	;# 
   622  021B                     	;# 
   623  021C                     	;# 
   624  021D                     	;# 
   625  021E                     	;# 
   626  021F                     	;# 
   627  0291                     	;# 
   628  0291                     	;# 
   629  0292                     	;# 
   630  0293                     	;# 
   631  0294                     	;# 
   632  0295                     	;# 
   633  0295                     	;# 
   634  0296                     	;# 
   635  0298                     	;# 
   636  0298                     	;# 
   637  0299                     	;# 
   638  029A                     	;# 
   639  029B                     	;# 
   640  029C                     	;# 
   641  029D                     	;# 
   642  029E                     	;# 
   643  0311                     	;# 
   644  0311                     	;# 
   645  0312                     	;# 
   646  0313                     	;# 
   647  0318                     	;# 
   648  0318                     	;# 
   649  0319                     	;# 
   650  031A                     	;# 
   651  038C                     	;# 
   652  038D                     	;# 
   653  038E                     	;# 
   654  0391                     	;# 
   655  0392                     	;# 
   656  0393                     	;# 
   657  0394                     	;# 
   658  0395                     	;# 
   659  0396                     	;# 
   660  039A                     	;# 
   661  039C                     	;# 
   662  039D                     	;# 
   663  039E                     	;# 
   664  039F                     	;# 
   665  0415                     	;# 
   666  0416                     	;# 
   667  0417                     	;# 
   668  041C                     	;# 
   669  041D                     	;# 
   670  041E                     	;# 
   671  0FE4                     	;# 
   672  0FE5                     	;# 
   673  0FE6                     	;# 
   674  0FE7                     	;# 
   675  0FE8                     	;# 
   676  0FE9                     	;# 
   677  0FEA                     	;# 
   678  0FEB                     	;# 
   679  0FED                     	;# 
   680  0FEE                     	;# 
   681  0FEF                     	;# 
   682  0000                     	;# 
   683  0001                     	;# 
   684  0002                     	;# 
   685  0003                     	;# 
   686  0004                     	;# 
   687  0005                     	;# 
   688  0006                     	;# 
   689  0007                     	;# 
   690  0008                     	;# 
   691  0009                     	;# 
   692  000A                     	;# 
   693  000B                     	;# 
   694  000C                     	;# 
   695  000D                     	;# 
   696  000E                     	;# 
   697  0011                     	;# 
   698  0012                     	;# 
   699  0013                     	;# 
   700  0014                     	;# 
   701  0015                     	;# 
   702  0016                     	;# 
   703  0016                     	;# 
   704  0017                     	;# 
   705  0018                     	;# 
   706  0019                     	;# 
   707  001A                     	;# 
   708  001B                     	;# 
   709  001C                     	;# 
   710  001E                     	;# 
   711  001F                     	;# 
   712  008C                     	;# 
   713  008D                     	;# 
   714  008E                     	;# 
   715  0091                     	;# 
   716  0092                     	;# 
   717  0093                     	;# 
   718  0094                     	;# 
   719  0095                     	;# 
   720  0096                     	;# 
   721  0097                     	;# 
   722  0098                     	;# 
   723  0099                     	;# 
   724  009A                     	;# 
   725  009B                     	;# 
   726  009B                     	;# 
   727  009C                     	;# 
   728  009D                     	;# 
   729  009E                     	;# 
   730  010C                     	;# 
   731  010D                     	;# 
   732  010E                     	;# 
   733  0111                     	;# 
   734  0112                     	;# 
   735  0113                     	;# 
   736  0114                     	;# 
   737  0115                     	;# 
   738  0116                     	;# 
   739  0117                     	;# 
   740  0118                     	;# 
   741  0119                     	;# 
   742  011A                     	;# 
   743  011B                     	;# 
   744  011D                     	;# 
   745  011E                     	;# 
   746  018C                     	;# 
   747  018D                     	;# 
   748  018E                     	;# 
   749  0191                     	;# 
   750  0191                     	;# 
   751  0192                     	;# 
   752  0193                     	;# 
   753  0193                     	;# 
   754  0193                     	;# 
   755  0194                     	;# 
   756  0195                     	;# 
   757  0196                     	;# 
   758  0199                     	;# 
   759  019A                     	;# 
   760  019B                     	;# 
   761  019B                     	;# 
   762  019C                     	;# 
   763  019D                     	;# 
   764  019E                     	;# 
   765  019F                     	;# 
   766  020C                     	;# 
   767  020D                     	;# 
   768  020E                     	;# 
   769  0211                     	;# 
   770  0211                     	;# 
   771  0212                     	;# 
   772  0212                     	;# 
   773  0213                     	;# 
   774  0213                     	;# 
   775  0214                     	;# 
   776  0214                     	;# 
   777  0215                     	;# 
   778  0215                     	;# 
   779  0215                     	;# 
   780  0216                     	;# 
   781  0216                     	;# 
   782  0217                     	;# 
   783  0217                     	;# 
   784  0219                     	;# 
   785  021A                     	;# 
   786  021B                     	;# 
   787  021C                     	;# 
   788  021D                     	;# 
   789  021E                     	;# 
   790  021F                     	;# 
   791  0291                     	;# 
   792  0291                     	;# 
   793  0292                     	;# 
   794  0293                     	;# 
   795  0294                     	;# 
   796  0295                     	;# 
   797  0295                     	;# 
   798  0296                     	;# 
   799  0298                     	;# 
   800  0298                     	;# 
   801  0299                     	;# 
   802  029A                     	;# 
   803  029B                     	;# 
   804  029C                     	;# 
   805  029D                     	;# 
   806  029E                     	;# 
   807  0311                     	;# 
   808  0311                     	;# 
   809  0312                     	;# 
   810  0313                     	;# 
   811  0318                     	;# 
   812  0318                     	;# 
   813  0319                     	;# 
   814  031A                     	;# 
   815  038C                     	;# 
   816  038D                     	;# 
   817  038E                     	;# 
   818  0391                     	;# 
   819  0392                     	;# 
   820  0393                     	;# 
   821  0394                     	;# 
   822  0395                     	;# 
   823  0396                     	;# 
   824  039A                     	;# 
   825  039C                     	;# 
   826  039D                     	;# 
   827  039E                     	;# 
   828  039F                     	;# 
   829  0415                     	;# 
   830  0416                     	;# 
   831  0417                     	;# 
   832  041C                     	;# 
   833  041D                     	;# 
   834  041E                     	;# 
   835  0FE4                     	;# 
   836  0FE5                     	;# 
   837  0FE6                     	;# 
   838  0FE7                     	;# 
   839  0FE8                     	;# 
   840  0FE9                     	;# 
   841  0FEA                     	;# 
   842  0FEB                     	;# 
   843  0FED                     	;# 
   844  0FEE                     	;# 
   845  0FEF                     	;# 
   846                           
   847                           	psect	idataBANK0
   848  01DB                     __pidataBANK0:	
   849                           
   850                           ;initializer for _Digit
   851  01DB  3403               	retlw	3
   852  01DC  349F               	retlw	159
   853  01DD  3425               	retlw	37
   854  01DE  340D               	retlw	13
   855  01DF  3499               	retlw	153
   856  01E0  3449               	retlw	73
   857  01E1  3441               	retlw	65
   858  01E2  341F               	retlw	31
   859  01E3  3401               	retlw	1
   860  01E4  3409               	retlw	9
   861                           
   862                           	psect	nvBANK0
   863  002F                     __pnvBANK0:	
   864  002F                     _number:	
   865  002F                     	ds	2
   866  0031                     _timer0ReloadVal:	
   867  0031                     	ds	1
   868  000B                     _INTCONbits	set	11
   869  0015                     _TMR0	set	21
   870  0095                     _OPTION_REG	set	149
   871  0095                     _OPTION_REGbits	set	149
   872  0099                     _OSCCON	set	153
   873  009A                     _OSCSTAT	set	154
   874  0098                     _OSCTUNE	set	152
   875  008C                     _TRISA	set	140
   876  008D                     _TRISB	set	141
   877  008E                     _TRISC	set	142
   878  011D                     _APFCON0	set	285
   879  011E                     _APFCON1	set	286
   880  010C                     _LATA	set	268
   881  010D                     _LATB	set	269
   882  010E                     _LATC	set	270
   883  010E                     _LATCbits	set	270
   884  0875                     _LATC5	set	2165
   885  0876                     _LATC6	set	2166
   886  0877                     _LATC7	set	2167
   887  018C                     _ANSELA	set	396
   888  018D                     _ANSELB	set	397
   889  018E                     _ANSELC	set	398
   890  020C                     _WPUA	set	524
   891  020D                     _WPUB	set	525
   892  020E                     _WPUC	set	526
   893                           
   894                           ; #config settings
   895  0000                     
   896                           	psect	cinit
   897  0013                     start_initialization:	
   898  0013                     __initialization:	
   899                           
   900                           ; Clear objects allocated to COMMON
   901  0013  01FB               	clrf	__pbssCOMMON& (0+127)
   902                           
   903                           ; Clear objects allocated to BANK0
   904  0014  01AA               	clrf	__pbssBANK0& (0+127)
   905  0015  01AB               	clrf	(__pbssBANK0+1)& (0+127)
   906  0016  01AC               	clrf	(__pbssBANK0+2)& (0+127)
   907  0017  01AD               	clrf	(__pbssBANK0+3)& (0+127)
   908  0018  01AE               	clrf	(__pbssBANK0+4)& (0+127)
   909                           
   910                           ; Initialize objects allocated to BANK0
   911  0019  30DB               	movlw	low __pidataBANK0
   912  001A  0084               	movwf	4
   913  001B  3081               	movlw	(high __pidataBANK0)| (0+128)
   914  001C  0085               	movwf	5
   915  001D  3020               	movlw	low __pdataBANK0
   916  001E  0086               	movwf	6
   917  001F  3000               	movlw	high __pdataBANK0
   918  0020  0087               	movwf	7
   919  0021  300A               	movlw	10
   920  0022  3181  21F5         	fcall	init_ram
   921  0024                     end_of_initialization:	
   922                           ;End of C runtime variable initialization code
   923                           
   924  0024                     __end_of__initialization:	
   925  0024  0020               	movlb	0
   926  0025  3180  28D9         	ljmp	_main	;jump to C main() function
   927                           
   928                           	psect	bssCOMMON
   929  007B                     __pbssCOMMON:	
   930  007B                     _d1:	
   931  007B                     	ds	1
   932                           
   933                           	psect	bssBANK0
   934  002A                     __pbssBANK0:	
   935  002A                     _counter:	
   936  002A                     	ds	2
   937  002C                     _d2:	
   938  002C                     	ds	1
   939  002D                     _d3:	
   940  002D                     	ds	1
   941  002E                     _d4:	
   942  002E                     	ds	1
   943                           
   944                           	psect	dataBANK0
   945  0020                     __pdataBANK0:	
   946  0020                     _Digit:	
   947  0020                     	ds	10
   948                           
   949                           	psect	inittext
   950  01F5                     init_ram:	
   951  01F5  00FE               	movwf	126
   952  01F6                     initloop:	
   953  01F6  0012               	moviw fsr0++
   954  01F7  001E               	movwi fsr1++
   955  01F8  0BFE               	decfsz	126,f
   956  01F9  29F6               	goto	initloop
   957  01FA  3400               	retlw	0
   958                           
   959                           	psect	cstackCOMMON
   960  0070                     __pcstackCOMMON:	
   961  0070                     ?_OSCILLATOR_Initialize:	
   962  0070                     ?_TMR0_Initialize:	
   963                           ; 0 bytes @ 0x0
   964                           
   965  0070                     ?_PIN_MANAGER_Initialize:	
   966                           ; 0 bytes @ 0x0
   967                           
   968  0070                     ?_SYSTEM_Initialize:	
   969                           ; 0 bytes @ 0x0
   970                           
   971  0070                     ?_TMR0_ISR:	
   972                           ; 0 bytes @ 0x0
   973                           
   974  0070                     ??_TMR0_ISR:	
   975                           ; 0 bytes @ 0x0
   976                           
   977  0070                     ?_INTERRUPT_InterruptManager:	
   978                           ; 0 bytes @ 0x0
   979                           
   980  0070                     ??_INTERRUPT_InterruptManager:	
   981                           ; 0 bytes @ 0x0
   982                           
   983  0070                     ?_writeDigit:	
   984                           ; 0 bytes @ 0x0
   985                           
   986  0070                     ?_controlRelay:	
   987                           ; 0 bytes @ 0x0
   988                           
   989  0070                     ?_main:	
   990                           ; 0 bytes @ 0x0
   991                           
   992                           
   993                           ; 0 bytes @ 0x0
   994  0070                     	ds	1
   995  0071                     ??_OSCILLATOR_Initialize:	
   996  0071                     ??_TMR0_Initialize:	
   997                           ; 0 bytes @ 0x1
   998                           
   999  0071                     ??_PIN_MANAGER_Initialize:	
  1000                           ; 0 bytes @ 0x1
  1001                           
  1002  0071                     ??_writeDigit:	
  1003                           ; 0 bytes @ 0x1
  1004                           
  1005  0071                     ??_controlRelay:	
  1006                           ; 0 bytes @ 0x1
  1007                           
  1008  0071                     ?___lwdiv:	
  1009                           ; 0 bytes @ 0x1
  1010                           
  1011  0071                     ?___lwmod:	
  1012                           ; 2 bytes @ 0x1
  1013                           
  1014  0071                     ___lwdiv@divisor:	
  1015                           ; 2 bytes @ 0x1
  1016                           
  1017  0071                     ___lwmod@divisor:	
  1018                           ; 2 bytes @ 0x1
  1019                           
  1020                           
  1021                           ; 2 bytes @ 0x1
  1022  0071                     	ds	1
  1023  0072                     ??_SYSTEM_Initialize:	
  1024  0072                     writeDigit@digit:	
  1025                           ; 0 bytes @ 0x2
  1026                           
  1027                           
  1028                           ; 1 bytes @ 0x2
  1029  0072                     	ds	1
  1030  0073                     writeDigit@i:	
  1031  0073                     ___lwdiv@dividend:	
  1032                           ; 1 bytes @ 0x3
  1033                           
  1034  0073                     ___lwmod@dividend:	
  1035                           ; 2 bytes @ 0x3
  1036                           
  1037                           
  1038                           ; 2 bytes @ 0x3
  1039  0073                     	ds	2
  1040  0075                     ??___lwdiv:	
  1041  0075                     ??___lwmod:	
  1042                           ; 0 bytes @ 0x5
  1043                           
  1044                           
  1045                           ; 0 bytes @ 0x5
  1046  0075                     	ds	1
  1047  0076                     ___lwmod@counter:	
  1048  0076                     ___lwdiv@quotient:	
  1049                           ; 1 bytes @ 0x6
  1050                           
  1051                           
  1052                           ; 2 bytes @ 0x6
  1053  0076                     	ds	2
  1054  0078                     ___lwdiv@counter:	
  1055                           
  1056                           ; 1 bytes @ 0x8
  1057  0078                     	ds	1
  1058  0079                     ?_displayNumber:	
  1059  0079                     displayNumber@number1:	
  1060                           ; 0 bytes @ 0x9
  1061                           
  1062                           
  1063                           ; 2 bytes @ 0x9
  1064  0079                     	ds	2
  1065  007B                     ??_main:	
  1066                           
  1067                           	psect	cstackBANK0
  1068  0032                     __pcstackBANK0:	
  1069                           ; 0 bytes @ 0xB
  1070                           
  1071  0032                     ??_displayNumber:	
  1072                           
  1073                           ; 0 bytes @ 0x0
  1074  0032                     	ds	2
  1075                           
  1076                           	psect	maintext
  1077  00D9                     __pmaintext:	
  1078 ;;
  1079 ;;Main: autosize = 0, tempsize = 0, incstack = 0, save=0
  1080 ;;
  1081 ;; *************** function _main *****************
  1082 ;; Defined at:
  1083 ;;		line 67 in file "main.c"
  1084 ;; Parameters:    Size  Location     Type
  1085 ;;		None
  1086 ;; Auto vars:     Size  Location     Type
  1087 ;;		None
  1088 ;; Return value:  Size  Location     Type
  1089 ;;		None               void
  1090 ;; Registers used:
  1091 ;;		wreg, fsr1l, fsr1h, status,2, status,0, pclath, cstack
  1092 ;; Tracked objects:
  1093 ;;		On entry : B1F/0
  1094 ;;		On exit  : 0/0
  1095 ;;		Unchanged: 0/0
  1096 ;; Data sizes:     COMMON   BANK0   BANK1   BANK2   BANK3   BANK4   BANK5   BANK6   BANK7   BANK8   BANK9  BANK10  BANK1
      +1  BANK12
  1097 ;;      Params:         0       0       0       0       0       0       0       0       0       0       0       0       
      +0       0
  1098 ;;      Locals:         0       0       0       0       0       0       0       0       0       0       0       0       
      +0       0
  1099 ;;      Temps:          0       0       0       0       0       0       0       0       0       0       0       0       
      +0       0
  1100 ;;      Totals:         0       0       0       0       0       0       0       0       0       0       0       0       
      +0       0
  1101 ;;Total ram usage:        0 bytes
  1102 ;; Hardware stack levels required when called:    4
  1103 ;; This function calls:
  1104 ;;		_SYSTEM_Initialize
  1105 ;;		_controlRelay
  1106 ;;		_displayNumber
  1107 ;; This function is called by:
  1108 ;;		Startup code after reset
  1109 ;; This function uses a non-reentrant model
  1110 ;;
  1111                           
  1112                           
  1113                           ;psect for function _main
  1114  00D9                     _main:	
  1115                           
  1116                           ;main.c: 68: SYSTEM_Initialize();
  1117                           
  1118                           ;incstack = 0
  1119                           ; Regs used in _main: [wreg+fsr1l+fsr1h+status,2+status,0+pclath+cstack]
  1120  00D9  3181  21E5  3180   	fcall	_SYSTEM_Initialize
  1121                           
  1122                           ;main.c: 69: TRISC = 0x00;
  1123  00DC  0021               	movlb	1	; select bank1
  1124  00DD  018E               	clrf	14	;volatile
  1125                           
  1126                           ;main.c: 71: LATC = 0x00;
  1127  00DE  0022               	movlb	2	; select bank2
  1128  00DF  018E               	clrf	14	;volatile
  1129                           
  1130                           ;main.c: 74: number = 30;
  1131  00E0  301E               	movlw	30
  1132  00E1  0020               	movlb	0	; select bank0
  1133  00E2  00AF               	movwf	_number
  1134  00E3  3000               	movlw	0
  1135  00E4  00B0               	movwf	_number+1
  1136                           
  1137                           ;main.c: 75: (INTCONbits.GIE = 1);
  1138  00E5  178B               	bsf	11,7	;volatile
  1139                           
  1140                           ;main.c: 76: (INTCONbits.PEIE = 1);
  1141  00E6  170B               	bsf	11,6	;volatile
  1142  00E7                     l1020:	
  1143                           ;main.c: 78: while (1) {
  1144                           
  1145                           
  1146                           ;main.c: 79: counter++;
  1147  00E7  3001               	movlw	1
  1148  00E8  0020               	movlb	0	; select bank0
  1149  00E9  07AA               	addwf	_counter,f
  1150  00EA  3000               	movlw	0
  1151  00EB  3DAB               	addwfc	_counter+1,f
  1152                           
  1153                           ;main.c: 80: if (counter >= 50) {
  1154  00EC  3000               	movlw	0
  1155  00ED  022B               	subwf	_counter+1,w
  1156  00EE  3032               	movlw	50
  1157  00EF  1903               	skipnz
  1158  00F0  022A               	subwf	_counter,w
  1159  00F1  1C03               	skipc
  1160  00F2  2905               	goto	l1034
  1161                           
  1162                           ;main.c: 81: counter = 0;
  1163  00F3  01AA               	clrf	_counter
  1164  00F4  01AB               	clrf	_counter+1
  1165                           
  1166                           ;main.c: 82: if (number > 0)
  1167  00F5  082F               	movf	_number,w
  1168  00F6  0430               	iorwf	_number+1,w
  1169  00F7  1903               	btfsc	3,2
  1170  00F8  28FE               	goto	l1030
  1171                           
  1172                           ;main.c: 83: number--;
  1173  00F9  3001               	movlw	1
  1174  00FA  02AF               	subwf	_number,f
  1175  00FB  3000               	movlw	0
  1176  00FC  3BB0               	subwfb	_number+1,f
  1177  00FD  2902               	goto	l1032
  1178  00FE                     l1030:	
  1179                           
  1180                           ;main.c: 84: else
  1181                           ;main.c: 85: number = 30;
  1182  00FE  301E               	movlw	30
  1183  00FF  00AF               	movwf	_number
  1184  0100  3000               	movlw	0
  1185  0101  00B0               	movwf	_number+1
  1186  0102                     l1032:	
  1187                           
  1188                           ;main.c: 86: controlRelay();
  1189  0102  3181  21BA  3180   	fcall	_controlRelay
  1190  0105                     l1034:	
  1191                           
  1192                           ;main.c: 87: }
  1193                           ;main.c: 88: displayNumber(number);
  1194  0105  0020               	movlb	0	; select bank0
  1195  0106  0830               	movf	_number+1,w
  1196  0107  00FA               	movwf	displayNumber@number1+1
  1197  0108  082F               	movf	_number,w
  1198  0109  00F9               	movwf	displayNumber@number1
  1199  010A  3180  2027  3180   	fcall	_displayNumber
  1200  010D  28E7               	goto	l1020
  1201  010E                     __end_of_main:	
  1202                           
  1203                           	psect	text1
  1204  0027                     __ptext1:	
  1205 ;; *************** function _displayNumber *****************
  1206 ;; Defined at:
  1207 ;;		line 32 in file "main.c"
  1208 ;; Parameters:    Size  Location     Type
  1209 ;;  number1         2    9[COMMON] unsigned int 
  1210 ;; Auto vars:     Size  Location     Type
  1211 ;;		None
  1212 ;; Return value:  Size  Location     Type
  1213 ;;		None               void
  1214 ;; Registers used:
  1215 ;;		wreg, fsr1l, fsr1h, status,2, status,0, pclath, cstack
  1216 ;; Tracked objects:
  1217 ;;		On entry : 0/0
  1218 ;;		On exit  : 0/0
  1219 ;;		Unchanged: 0/0
  1220 ;; Data sizes:     COMMON   BANK0   BANK1   BANK2   BANK3   BANK4   BANK5   BANK6   BANK7   BANK8   BANK9  BANK10  BANK1
      +1  BANK12
  1221 ;;      Params:         2       0       0       0       0       0       0       0       0       0       0       0       
      +0       0
  1222 ;;      Locals:         0       0       0       0       0       0       0       0       0       0       0       0       
      +0       0
  1223 ;;      Temps:          0       2       0       0       0       0       0       0       0       0       0       0       
      +0       0
  1224 ;;      Totals:         2       2       0       0       0       0       0       0       0       0       0       0       
      +0       0
  1225 ;;Total ram usage:        4 bytes
  1226 ;; Hardware stack levels used:    1
  1227 ;; Hardware stack levels required when called:    3
  1228 ;; This function calls:
  1229 ;;		___lwdiv
  1230 ;;		___lwmod
  1231 ;;		_writeDigit
  1232 ;; This function is called by:
  1233 ;;		_main
  1234 ;; This function uses a non-reentrant model
  1235 ;;
  1236                           
  1237                           
  1238                           ;psect for function _displayNumber
  1239  0027                     _displayNumber:	
  1240                           
  1241                           ;main.c: 33: d1 = number1 / 1000;
  1242                           
  1243                           ;incstack = 0
  1244                           ; Regs used in _displayNumber: [wreg+fsr1l+fsr1h+status,2+status,0+pclath+cstack]
  1245  0027  30E8               	movlw	232
  1246  0028  00F1               	movwf	___lwdiv@divisor
  1247  0029  3003               	movlw	3
  1248  002A  00F2               	movwf	___lwdiv@divisor+1
  1249  002B  087A               	movf	displayNumber@number1+1,w
  1250  002C  00F4               	movwf	___lwdiv@dividend+1
  1251  002D  0879               	movf	displayNumber@number1,w
  1252  002E  00F3               	movwf	___lwdiv@dividend
  1253  002F  3181  210E  3180   	fcall	___lwdiv
  1254  0032  0871               	movf	?___lwdiv,w
  1255  0033  0020               	movlb	0	; select bank0
  1256  0034  00B2               	movwf	??_displayNumber
  1257  0035  0832               	movf	??_displayNumber,w
  1258  0036  00FB               	movwf	_d1
  1259                           
  1260                           ;main.c: 34: number1 %= 1000;
  1261  0037  30E8               	movlw	232
  1262  0038  00F1               	movwf	___lwmod@divisor
  1263  0039  3003               	movlw	3
  1264  003A  00F2               	movwf	___lwmod@divisor+1
  1265  003B  087A               	movf	displayNumber@number1+1,w
  1266  003C  00F4               	movwf	___lwmod@dividend+1
  1267  003D  0879               	movf	displayNumber@number1,w
  1268  003E  00F3               	movwf	___lwmod@dividend
  1269  003F  3181  2142  3180   	fcall	___lwmod
  1270  0042  0872               	movf	?___lwmod+1,w
  1271  0043  00FA               	movwf	displayNumber@number1+1
  1272  0044  0871               	movf	?___lwmod,w
  1273  0045  00F9               	movwf	displayNumber@number1
  1274                           
  1275                           ;main.c: 35: d2 = number1 / 100;
  1276  0046  3064               	movlw	100
  1277  0047  00F1               	movwf	___lwdiv@divisor
  1278  0048  3000               	movlw	0
  1279  0049  00F2               	movwf	___lwdiv@divisor+1
  1280  004A  087A               	movf	displayNumber@number1+1,w
  1281  004B  00F4               	movwf	___lwdiv@dividend+1
  1282  004C  0879               	movf	displayNumber@number1,w
  1283  004D  00F3               	movwf	___lwdiv@dividend
  1284  004E  3181  210E  3180   	fcall	___lwdiv
  1285  0051  0871               	movf	?___lwdiv,w
  1286  0052  0020               	movlb	0	; select bank0
  1287  0053  00B2               	movwf	??_displayNumber
  1288  0054  0832               	movf	??_displayNumber,w
  1289  0055  00AC               	movwf	_d2
  1290                           
  1291                           ;main.c: 36: number1 %= 100;
  1292  0056  3064               	movlw	100
  1293  0057  00F1               	movwf	___lwmod@divisor
  1294  0058  3000               	movlw	0
  1295  0059  00F2               	movwf	___lwmod@divisor+1
  1296  005A  087A               	movf	displayNumber@number1+1,w
  1297  005B  00F4               	movwf	___lwmod@dividend+1
  1298  005C  0879               	movf	displayNumber@number1,w
  1299  005D  00F3               	movwf	___lwmod@dividend
  1300  005E  3181  2142  3180   	fcall	___lwmod
  1301  0061  0872               	movf	?___lwmod+1,w
  1302  0062  00FA               	movwf	displayNumber@number1+1
  1303  0063  0871               	movf	?___lwmod,w
  1304  0064  00F9               	movwf	displayNumber@number1
  1305                           
  1306                           ;main.c: 37: d3 = number1 / 10;
  1307  0065  300A               	movlw	10
  1308  0066  00F1               	movwf	___lwdiv@divisor
  1309  0067  3000               	movlw	0
  1310  0068  00F2               	movwf	___lwdiv@divisor+1
  1311  0069  087A               	movf	displayNumber@number1+1,w
  1312  006A  00F4               	movwf	___lwdiv@dividend+1
  1313  006B  0879               	movf	displayNumber@number1,w
  1314  006C  00F3               	movwf	___lwdiv@dividend
  1315  006D  3181  210E  3180   	fcall	___lwdiv
  1316  0070  0871               	movf	?___lwdiv,w
  1317  0071  0020               	movlb	0	; select bank0
  1318  0072  00B2               	movwf	??_displayNumber
  1319  0073  0832               	movf	??_displayNumber,w
  1320  0074  00AD               	movwf	_d3
  1321                           
  1322                           ;main.c: 38: d4 = number1 % 10;
  1323  0075  300A               	movlw	10
  1324  0076  00F1               	movwf	___lwmod@divisor
  1325  0077  3000               	movlw	0
  1326  0078  00F2               	movwf	___lwmod@divisor+1
  1327  0079  087A               	movf	displayNumber@number1+1,w
  1328  007A  00F4               	movwf	___lwmod@dividend+1
  1329  007B  0879               	movf	displayNumber@number1,w
  1330  007C  00F3               	movwf	___lwmod@dividend
  1331  007D  3181  2142  3180   	fcall	___lwmod
  1332  0080  0871               	movf	?___lwmod,w
  1333  0081  0020               	movlb	0	; select bank0
  1334  0082  00B2               	movwf	??_displayNumber
  1335  0083  0832               	movf	??_displayNumber,w
  1336  0084  00AE               	movwf	_d4
  1337                           
  1338                           ;main.c: 40: LATCbits.LATC3 = 1;
  1339  0085  0022               	movlb	2	; select bank2
  1340  0086  158E               	bsf	14,3	;volatile
  1341                           
  1342                           ;main.c: 41: LATCbits.LATC4 = 1;
  1343  0087  160E               	bsf	14,4	;volatile
  1344                           
  1345                           ;main.c: 42: writeDigit(Digit[d1]);
  1346  0088  087B               	movf	_d1,w
  1347  0089  3E20               	addlw	(low (_Digit| 0))& (0+255)
  1348  008A  0086               	movwf	6
  1349  008B  0187               	clrf	7
  1350  008C  0801               	movf	1,w
  1351  008D  3181  216E  3180   	fcall	_writeDigit
  1352                           
  1353                           ;main.c: 43: _delay((unsigned long)((5)*(4000000/4000.0)));
  1354  0090  3007               	movlw	7
  1355  0091  0020               	movlb	0	; select bank0
  1356  0092  00B3               	movwf	??_displayNumber+1
  1357  0093  307D               	movlw	125
  1358  0094  00B2               	movwf	??_displayNumber
  1359  0095                     u497:	
  1360  0095  0BB2               	decfsz	??_displayNumber,f
  1361  0096  2895               	goto	u497
  1362  0097  0BB3               	decfsz	??_displayNumber+1,f
  1363  0098  2895               	goto	u497
  1364                           
  1365                           ;main.c: 45: LATCbits.LATC3 = 0;
  1366  0099  0022               	movlb	2	; select bank2
  1367  009A  118E               	bcf	14,3	;volatile
  1368                           
  1369                           ;main.c: 46: LATCbits.LATC4 = 1;
  1370  009B  160E               	bsf	14,4	;volatile
  1371                           
  1372                           ;main.c: 47: writeDigit(Digit[d2]);
  1373  009C  0020               	movlb	0	; select bank0
  1374  009D  082C               	movf	_d2,w
  1375  009E  3E20               	addlw	(low (_Digit| 0))& (0+255)
  1376  009F  0086               	movwf	6
  1377  00A0  0187               	clrf	7
  1378  00A1  0801               	movf	1,w
  1379  00A2  3181  216E  3180   	fcall	_writeDigit
  1380                           
  1381                           ;main.c: 48: _delay((unsigned long)((5)*(4000000/4000.0)));
  1382  00A5  3007               	movlw	7
  1383  00A6  0020               	movlb	0	; select bank0
  1384  00A7  00B3               	movwf	??_displayNumber+1
  1385  00A8  307D               	movlw	125
  1386  00A9  00B2               	movwf	??_displayNumber
  1387  00AA                     u507:	
  1388  00AA  0BB2               	decfsz	??_displayNumber,f
  1389  00AB  28AA               	goto	u507
  1390  00AC  0BB3               	decfsz	??_displayNumber+1,f
  1391  00AD  28AA               	goto	u507
  1392                           
  1393                           ;main.c: 50: LATCbits.LATC3 = 1;
  1394  00AE  0022               	movlb	2	; select bank2
  1395  00AF  158E               	bsf	14,3	;volatile
  1396                           
  1397                           ;main.c: 51: LATCbits.LATC4 = 0;
  1398  00B0  120E               	bcf	14,4	;volatile
  1399                           
  1400                           ;main.c: 52: writeDigit(Digit[d3]);
  1401  00B1  0020               	movlb	0	; select bank0
  1402  00B2  082D               	movf	_d3,w
  1403  00B3  3E20               	addlw	(low (_Digit| 0))& (0+255)
  1404  00B4  0086               	movwf	6
  1405  00B5  0187               	clrf	7
  1406  00B6  0801               	movf	1,w
  1407  00B7  3181  216E  3180   	fcall	_writeDigit
  1408                           
  1409                           ;main.c: 53: _delay((unsigned long)((5)*(4000000/4000.0)));
  1410  00BA  3007               	movlw	7
  1411  00BB  0020               	movlb	0	; select bank0
  1412  00BC  00B3               	movwf	??_displayNumber+1
  1413  00BD  307D               	movlw	125
  1414  00BE  00B2               	movwf	??_displayNumber
  1415  00BF                     u517:	
  1416  00BF  0BB2               	decfsz	??_displayNumber,f
  1417  00C0  28BF               	goto	u517
  1418  00C1  0BB3               	decfsz	??_displayNumber+1,f
  1419  00C2  28BF               	goto	u517
  1420                           
  1421                           ;main.c: 55: LATCbits.LATC3 = 0;
  1422  00C3  0022               	movlb	2	; select bank2
  1423  00C4  118E               	bcf	14,3	;volatile
  1424                           
  1425                           ;main.c: 56: LATCbits.LATC4 = 0;
  1426  00C5  120E               	bcf	14,4	;volatile
  1427                           
  1428                           ;main.c: 57: writeDigit(Digit[d4]);
  1429  00C6  0020               	movlb	0	; select bank0
  1430  00C7  082E               	movf	_d4,w
  1431  00C8  3E20               	addlw	(low (_Digit| 0))& (0+255)
  1432  00C9  0086               	movwf	6
  1433  00CA  0187               	clrf	7
  1434  00CB  0801               	movf	1,w
  1435  00CC  3181  216E  3180   	fcall	_writeDigit
  1436                           
  1437                           ;main.c: 58: _delay((unsigned long)((5)*(4000000/4000.0)));
  1438  00CF  3007               	movlw	7
  1439  00D0  0020               	movlb	0	; select bank0
  1440  00D1  00B3               	movwf	??_displayNumber+1
  1441  00D2  307D               	movlw	125
  1442  00D3  00B2               	movwf	??_displayNumber
  1443  00D4                     u527:	
  1444  00D4  0BB2               	decfsz	??_displayNumber,f
  1445  00D5  28D4               	goto	u527
  1446  00D6  0BB3               	decfsz	??_displayNumber+1,f
  1447  00D7  28D4               	goto	u527
  1448  00D8  0008               	return
  1449  00D9                     __end_of_displayNumber:	
  1450                           
  1451                           	psect	text2
  1452  016E                     __ptext2:	
  1453 ;; *************** function _writeDigit *****************
  1454 ;; Defined at:
  1455 ;;		line 15 in file "main.c"
  1456 ;; Parameters:    Size  Location     Type
  1457 ;;  digit           1    wreg     unsigned char 
  1458 ;; Auto vars:     Size  Location     Type
  1459 ;;  digit           1    2[COMMON] unsigned char 
  1460 ;;  i               1    3[COMMON] unsigned char 
  1461 ;; Return value:  Size  Location     Type
  1462 ;;		None               void
  1463 ;; Registers used:
  1464 ;;		wreg, status,2, status,0
  1465 ;; Tracked objects:
  1466 ;;		On entry : 0/0
  1467 ;;		On exit  : 0/0
  1468 ;;		Unchanged: 0/0
  1469 ;; Data sizes:     COMMON   BANK0   BANK1   BANK2   BANK3   BANK4   BANK5   BANK6   BANK7   BANK8   BANK9  BANK10  BANK1
      +1  BANK12
  1470 ;;      Params:         0       0       0       0       0       0       0       0       0       0       0       0       
      +0       0
  1471 ;;      Locals:         2       0       0       0       0       0       0       0       0       0       0       0       
      +0       0
  1472 ;;      Temps:          1       0       0       0       0       0       0       0       0       0       0       0       
      +0       0
  1473 ;;      Totals:         3       0       0       0       0       0       0       0       0       0       0       0       
      +0       0
  1474 ;;Total ram usage:        3 bytes
  1475 ;; Hardware stack levels used:    1
  1476 ;; Hardware stack levels required when called:    2
  1477 ;; This function calls:
  1478 ;;		Nothing
  1479 ;; This function is called by:
  1480 ;;		_displayNumber
  1481 ;; This function uses a non-reentrant model
  1482 ;;
  1483                           
  1484                           
  1485                           ;psect for function _writeDigit
  1486  016E                     _writeDigit:	
  1487                           
  1488                           ;incstack = 0
  1489                           ; Regs used in _writeDigit: [wreg+status,2+status,0]
  1490                           ;writeDigit@digit stored from wreg
  1491  016E  00F2               	movwf	writeDigit@digit
  1492                           
  1493                           ;main.c: 16: unsigned char i;
  1494                           ;main.c: 17: LATC7 = 0;
  1495  016F  0022               	movlb	2	; select bank2
  1496  0170  138E               	bcf	14,7	;volatile
  1497                           
  1498                           ;main.c: 18: LATC5 = 0;
  1499  0171  128E               	bcf	14,5	;volatile
  1500                           
  1501                           ;main.c: 19: LATC7 = 0;
  1502  0172  138E               	bcf	14,7	;volatile
  1503                           
  1504                           ;main.c: 20: LATC5 = 0;
  1505  0173  128E               	bcf	14,5	;volatile
  1506                           
  1507                           ;main.c: 21: for (i = 0; i < 8; i++) {
  1508  0174  01F3               	clrf	writeDigit@i
  1509  0175  3008               	movlw	8
  1510  0176  0273               	subwf	writeDigit@i,w
  1511  0177  1803               	btfsc	3,0
  1512  0178  2993               	goto	l124
  1513  0179                     l830:	
  1514                           
  1515                           ;main.c: 22: LATC6 = (digit >> i) & 0x01;
  1516  0179  0872               	movf	writeDigit@digit,w
  1517  017A  00F1               	movwf	??_writeDigit
  1518  017B  0A73               	incf	writeDigit@i,w
  1519  017C  297E               	goto	u254
  1520  017D                     u255:	
  1521  017D  36F1               	lsrf	??_writeDigit,f
  1522  017E                     u254:	
  1523  017E  0B89               	decfsz	9,f
  1524  017F  297D               	goto	u255
  1525  0180  1C71               	btfss	??_writeDigit,0
  1526  0181  2985               	goto	u260
  1527  0182  0022               	movlb	2	; select bank2
  1528  0183  170E               	bsf	14,6	;volatile
  1529  0184  2987               	goto	l832
  1530  0185                     u260:	
  1531  0185  0022               	movlb	2	; select bank2
  1532  0186  130E               	bcf	14,6	;volatile
  1533  0187                     l832:	
  1534                           
  1535                           ;main.c: 23: LATC7 = 1;
  1536  0187  178E               	bsf	14,7	;volatile
  1537                           
  1538                           ;main.c: 24: LATC7 = 1;
  1539  0188  178E               	bsf	14,7	;volatile
  1540                           
  1541                           ;main.c: 25: LATC7 = 0;
  1542  0189  138E               	bcf	14,7	;volatile
  1543                           
  1544                           ;main.c: 26: LATC7 = 0;
  1545  018A  138E               	bcf	14,7	;volatile
  1546  018B  3001               	movlw	1
  1547  018C  00F1               	movwf	??_writeDigit
  1548  018D  0871               	movf	??_writeDigit,w
  1549  018E  07F3               	addwf	writeDigit@i,f
  1550  018F  3008               	movlw	8
  1551  0190  0273               	subwf	writeDigit@i,w
  1552  0191  1C03               	skipc
  1553  0192  2979               	goto	l830
  1554  0193                     l124:	
  1555                           
  1556                           ;main.c: 27: }
  1557                           ;main.c: 28: LATC5 = 1;
  1558  0193  168E               	bsf	14,5	;volatile
  1559                           
  1560                           ;main.c: 29: LATC5 = 1;
  1561  0194  168E               	bsf	14,5	;volatile
  1562  0195  0008               	return
  1563  0196                     __end_of_writeDigit:	
  1564                           
  1565                           	psect	text3
  1566  0142                     __ptext3:	
  1567 ;; *************** function ___lwmod *****************
  1568 ;; Defined at:
  1569 ;;		line 6 in file "C:\Program Files\Microchip\xc8\v1.34\sources\common\lwmod.c"
  1570 ;; Parameters:    Size  Location     Type
  1571 ;;  divisor         2    1[COMMON] unsigned int 
  1572 ;;  dividend        2    3[COMMON] unsigned int 
  1573 ;; Auto vars:     Size  Location     Type
  1574 ;;  counter         1    6[COMMON] unsigned char 
  1575 ;; Return value:  Size  Location     Type
  1576 ;;                  2    1[COMMON] unsigned int 
  1577 ;; Registers used:
  1578 ;;		wreg, status,2, status,0
  1579 ;; Tracked objects:
  1580 ;;		On entry : 0/0
  1581 ;;		On exit  : 0/0
  1582 ;;		Unchanged: 0/0
  1583 ;; Data sizes:     COMMON   BANK0   BANK1   BANK2   BANK3   BANK4   BANK5   BANK6   BANK7   BANK8   BANK9  BANK10  BANK1
      +1  BANK12
  1584 ;;      Params:         4       0       0       0       0       0       0       0       0       0       0       0       
      +0       0
  1585 ;;      Locals:         1       0       0       0       0       0       0       0       0       0       0       0       
      +0       0
  1586 ;;      Temps:          1       0       0       0       0       0       0       0       0       0       0       0       
      +0       0
  1587 ;;      Totals:         6       0       0       0       0       0       0       0       0       0       0       0       
      +0       0
  1588 ;;Total ram usage:        6 bytes
  1589 ;; Hardware stack levels used:    1
  1590 ;; Hardware stack levels required when called:    2
  1591 ;; This function calls:
  1592 ;;		Nothing
  1593 ;; This function is called by:
  1594 ;;		_displayNumber
  1595 ;; This function uses a non-reentrant model
  1596 ;;
  1597                           
  1598                           
  1599                           ;psect for function ___lwmod
  1600  0142                     ___lwmod:	
  1601                           
  1602                           ;incstack = 0
  1603                           ; Regs used in ___lwmod: [wreg+status,2+status,0]
  1604  0142  0871               	movf	___lwmod@divisor,w
  1605  0143  0472               	iorwf	___lwmod@divisor+1,w
  1606  0144  1903               	btfsc	3,2
  1607  0145  2969               	goto	l886
  1608  0146  01F6               	clrf	___lwmod@counter
  1609  0147  0AF6               	incf	___lwmod@counter,f
  1610  0148                     l876:	
  1611  0148  1BF2               	btfsc	___lwmod@divisor+1,7
  1612  0149  2954               	goto	l878
  1613  014A  3001               	movlw	1
  1614  014B                     u375:	
  1615  014B  35F1               	lslf	___lwmod@divisor,f
  1616  014C  0DF2               	rlf	___lwmod@divisor+1,f
  1617  014D  0B89               	decfsz	9,f
  1618  014E  294B               	goto	u375
  1619  014F  3001               	movlw	1
  1620  0150  00F5               	movwf	??___lwmod
  1621  0151  0875               	movf	??___lwmod,w
  1622  0152  07F6               	addwf	___lwmod@counter,f
  1623  0153  2948               	goto	l876
  1624  0154                     l878:	
  1625  0154  0872               	movf	___lwmod@divisor+1,w
  1626  0155  0274               	subwf	___lwmod@dividend+1,w
  1627  0156  1D03               	skipz
  1628  0157  295A               	goto	u395
  1629  0158  0871               	movf	___lwmod@divisor,w
  1630  0159  0273               	subwf	___lwmod@dividend,w
  1631  015A                     u395:	
  1632  015A  1C03               	skipc
  1633  015B  2960               	goto	l882
  1634  015C  0871               	movf	___lwmod@divisor,w
  1635  015D  02F3               	subwf	___lwmod@dividend,f
  1636  015E  0872               	movf	___lwmod@divisor+1,w
  1637  015F  3BF4               	subwfb	___lwmod@dividend+1,f
  1638  0160                     l882:	
  1639  0160  3001               	movlw	1
  1640  0161                     u405:	
  1641  0161  36F2               	lsrf	___lwmod@divisor+1,f
  1642  0162  0CF1               	rrf	___lwmod@divisor,f
  1643  0163  0B89               	decfsz	9,f
  1644  0164  2961               	goto	u405
  1645  0165  3001               	movlw	1
  1646  0166  02F6               	subwf	___lwmod@counter,f
  1647  0167  1D03               	btfss	3,2
  1648  0168  2954               	goto	l878
  1649  0169                     l886:	
  1650  0169  0874               	movf	___lwmod@dividend+1,w
  1651  016A  00F2               	movwf	?___lwmod+1
  1652  016B  0873               	movf	___lwmod@dividend,w
  1653  016C  00F1               	movwf	?___lwmod
  1654  016D  0008               	return
  1655  016E                     __end_of___lwmod:	
  1656                           
  1657                           	psect	text4
  1658  010E                     __ptext4:	
  1659 ;; *************** function ___lwdiv *****************
  1660 ;; Defined at:
  1661 ;;		line 6 in file "C:\Program Files\Microchip\xc8\v1.34\sources\common\lwdiv.c"
  1662 ;; Parameters:    Size  Location     Type
  1663 ;;  divisor         2    1[COMMON] unsigned int 
  1664 ;;  dividend        2    3[COMMON] unsigned int 
  1665 ;; Auto vars:     Size  Location     Type
  1666 ;;  quotient        2    6[COMMON] unsigned int 
  1667 ;;  counter         1    8[COMMON] unsigned char 
  1668 ;; Return value:  Size  Location     Type
  1669 ;;                  2    1[COMMON] unsigned int 
  1670 ;; Registers used:
  1671 ;;		wreg, status,2, status,0
  1672 ;; Tracked objects:
  1673 ;;		On entry : 0/0
  1674 ;;		On exit  : 0/0
  1675 ;;		Unchanged: 0/0
  1676 ;; Data sizes:     COMMON   BANK0   BANK1   BANK2   BANK3   BANK4   BANK5   BANK6   BANK7   BANK8   BANK9  BANK10  BANK1
      +1  BANK12
  1677 ;;      Params:         4       0       0       0       0       0       0       0       0       0       0       0       
      +0       0
  1678 ;;      Locals:         3       0       0       0       0       0       0       0       0       0       0       0       
      +0       0
  1679 ;;      Temps:          1       0       0       0       0       0       0       0       0       0       0       0       
      +0       0
  1680 ;;      Totals:         8       0       0       0       0       0       0       0       0       0       0       0       
      +0       0
  1681 ;;Total ram usage:        8 bytes
  1682 ;; Hardware stack levels used:    1
  1683 ;; Hardware stack levels required when called:    2
  1684 ;; This function calls:
  1685 ;;		Nothing
  1686 ;; This function is called by:
  1687 ;;		_displayNumber
  1688 ;; This function uses a non-reentrant model
  1689 ;;
  1690                           
  1691                           
  1692                           ;psect for function ___lwdiv
  1693  010E                     ___lwdiv:	
  1694                           
  1695                           ;incstack = 0
  1696                           ; Regs used in ___lwdiv: [wreg+status,2+status,0]
  1697  010E  01F6               	clrf	___lwdiv@quotient
  1698  010F  01F7               	clrf	___lwdiv@quotient+1
  1699  0110  0871               	movf	___lwdiv@divisor,w
  1700  0111  0472               	iorwf	___lwdiv@divisor+1,w
  1701  0112  1903               	btfsc	3,2
  1702  0113  293D               	goto	l864
  1703  0114  01F8               	clrf	___lwdiv@counter
  1704  0115  0AF8               	incf	___lwdiv@counter,f
  1705  0116                     l852:	
  1706  0116  1BF2               	btfsc	___lwdiv@divisor+1,7
  1707  0117  2922               	goto	l854
  1708  0118  3001               	movlw	1
  1709  0119                     u305:	
  1710  0119  35F1               	lslf	___lwdiv@divisor,f
  1711  011A  0DF2               	rlf	___lwdiv@divisor+1,f
  1712  011B  0B89               	decfsz	9,f
  1713  011C  2919               	goto	u305
  1714  011D  3001               	movlw	1
  1715  011E  00F5               	movwf	??___lwdiv
  1716  011F  0875               	movf	??___lwdiv,w
  1717  0120  07F8               	addwf	___lwdiv@counter,f
  1718  0121  2916               	goto	l852
  1719  0122                     l854:	
  1720  0122  3001               	movlw	1
  1721  0123                     u325:	
  1722  0123  35F6               	lslf	___lwdiv@quotient,f
  1723  0124  0DF7               	rlf	___lwdiv@quotient+1,f
  1724  0125  0B89               	decfsz	9,f
  1725  0126  2923               	goto	u325
  1726  0127  0872               	movf	___lwdiv@divisor+1,w
  1727  0128  0274               	subwf	___lwdiv@dividend+1,w
  1728  0129  1D03               	skipz
  1729  012A  292D               	goto	u335
  1730  012B  0871               	movf	___lwdiv@divisor,w
  1731  012C  0273               	subwf	___lwdiv@dividend,w
  1732  012D                     u335:	
  1733  012D  1C03               	skipc
  1734  012E  2934               	goto	l860
  1735  012F  0871               	movf	___lwdiv@divisor,w
  1736  0130  02F3               	subwf	___lwdiv@dividend,f
  1737  0131  0872               	movf	___lwdiv@divisor+1,w
  1738  0132  3BF4               	subwfb	___lwdiv@dividend+1,f
  1739  0133  1476               	bsf	___lwdiv@quotient,0
  1740  0134                     l860:	
  1741  0134  3001               	movlw	1
  1742  0135                     u345:	
  1743  0135  36F2               	lsrf	___lwdiv@divisor+1,f
  1744  0136  0CF1               	rrf	___lwdiv@divisor,f
  1745  0137  0B89               	decfsz	9,f
  1746  0138  2935               	goto	u345
  1747  0139  3001               	movlw	1
  1748  013A  02F8               	subwf	___lwdiv@counter,f
  1749  013B  1D03               	btfss	3,2
  1750  013C  2922               	goto	l854
  1751  013D                     l864:	
  1752  013D  0877               	movf	___lwdiv@quotient+1,w
  1753  013E  00F2               	movwf	?___lwdiv+1
  1754  013F  0876               	movf	___lwdiv@quotient,w
  1755  0140  00F1               	movwf	?___lwdiv
  1756  0141  0008               	return
  1757  0142                     __end_of___lwdiv:	
  1758                           
  1759                           	psect	text5
  1760  01BA                     __ptext5:	
  1761 ;; *************** function _controlRelay *****************
  1762 ;; Defined at:
  1763 ;;		line 61 in file "main.c"
  1764 ;; Parameters:    Size  Location     Type
  1765 ;;		None
  1766 ;; Auto vars:     Size  Location     Type
  1767 ;;		None
  1768 ;; Return value:  Size  Location     Type
  1769 ;;		None               void
  1770 ;; Registers used:
  1771 ;;		wreg
  1772 ;; Tracked objects:
  1773 ;;		On entry : 0/0
  1774 ;;		On exit  : 0/0
  1775 ;;		Unchanged: 0/0
  1776 ;; Data sizes:     COMMON   BANK0   BANK1   BANK2   BANK3   BANK4   BANK5   BANK6   BANK7   BANK8   BANK9  BANK10  BANK1
      +1  BANK12
  1777 ;;      Params:         0       0       0       0       0       0       0       0       0       0       0       0       
      +0       0
  1778 ;;      Locals:         0       0       0       0       0       0       0       0       0       0       0       0       
      +0       0
  1779 ;;      Temps:          3       0       0       0       0       0       0       0       0       0       0       0       
      +0       0
  1780 ;;      Totals:         3       0       0       0       0       0       0       0       0       0       0       0       
      +0       0
  1781 ;;Total ram usage:        3 bytes
  1782 ;; Hardware stack levels used:    1
  1783 ;; Hardware stack levels required when called:    2
  1784 ;; This function calls:
  1785 ;;		Nothing
  1786 ;; This function is called by:
  1787 ;;		_main
  1788 ;; This function uses a non-reentrant model
  1789 ;;
  1790                           
  1791                           
  1792                           ;psect for function _controlRelay
  1793  01BA                     _controlRelay:	
  1794                           
  1795                           ;main.c: 62: LATCbits.LATC2 = 1;
  1796                           
  1797                           ;incstack = 0
  1798                           ; Regs used in _controlRelay: [wreg]
  1799  01BA  0022               	movlb	2	; select bank2
  1800  01BB  150E               	bsf	14,2	;volatile
  1801                           
  1802                           ;main.c: 63: _delay((unsigned long)((1000)*(4000000/4000.0)));
  1803  01BC  3006               	movlw	6
  1804  01BD  00F3               	movwf	??_controlRelay+2
  1805  01BE  3013               	movlw	19
  1806  01BF  00F2               	movwf	??_controlRelay+1
  1807  01C0  30B1               	movlw	177
  1808  01C1  00F1               	movwf	??_controlRelay
  1809  01C2                     u537:	
  1810  01C2  0BF1               	decfsz	??_controlRelay,f
  1811  01C3  29C2               	goto	u537
  1812  01C4  0BF2               	decfsz	??_controlRelay+1,f
  1813  01C5  29C2               	goto	u537
  1814  01C6  0BF3               	decfsz	??_controlRelay+2,f
  1815  01C7  29C2               	goto	u537
  1816  01C8  3200               	nop2
  1817                           
  1818                           ;main.c: 64: LATCbits.LATC2 = 0;
  1819  01C9  0022               	movlb	2	; select bank2
  1820  01CA  110E               	bcf	14,2	;volatile
  1821  01CB  0008               	return
  1822  01CC                     __end_of_controlRelay:	
  1823                           
  1824                           	psect	text6
  1825  01E5                     __ptext6:	
  1826 ;; *************** function _SYSTEM_Initialize *****************
  1827 ;; Defined at:
  1828 ;;		line 70 in file "mcc_generated_files/mcc.c"
  1829 ;; Parameters:    Size  Location     Type
  1830 ;;		None
  1831 ;; Auto vars:     Size  Location     Type
  1832 ;;		None
  1833 ;; Return value:  Size  Location     Type
  1834 ;;		None               void
  1835 ;; Registers used:
  1836 ;;		wreg, status,2, status,0, pclath, cstack
  1837 ;; Tracked objects:
  1838 ;;		On entry : 0/0
  1839 ;;		On exit  : 0/0
  1840 ;;		Unchanged: 0/0
  1841 ;; Data sizes:     COMMON   BANK0   BANK1   BANK2   BANK3   BANK4   BANK5   BANK6   BANK7   BANK8   BANK9  BANK10  BANK1
      +1  BANK12
  1842 ;;      Params:         0       0       0       0       0       0       0       0       0       0       0       0       
      +0       0
  1843 ;;      Locals:         0       0       0       0       0       0       0       0       0       0       0       0       
      +0       0
  1844 ;;      Temps:          0       0       0       0       0       0       0       0       0       0       0       0       
      +0       0
  1845 ;;      Totals:         0       0       0       0       0       0       0       0       0       0       0       0       
      +0       0
  1846 ;;Total ram usage:        0 bytes
  1847 ;; Hardware stack levels used:    1
  1848 ;; Hardware stack levels required when called:    3
  1849 ;; This function calls:
  1850 ;;		_OSCILLATOR_Initialize
  1851 ;;		_PIN_MANAGER_Initialize
  1852 ;;		_TMR0_Initialize
  1853 ;; This function is called by:
  1854 ;;		_main
  1855 ;; This function uses a non-reentrant model
  1856 ;;
  1857                           
  1858                           
  1859                           ;psect for function _SYSTEM_Initialize
  1860  01E5                     _SYSTEM_Initialize:	
  1861                           
  1862                           ;mcc.c: 72: OSCILLATOR_Initialize();
  1863                           
  1864                           ;incstack = 0
  1865                           ; Regs used in _SYSTEM_Initialize: [wreg+status,2+status,0+pclath+cstack]
  1866  01E5  3181  21FB  3181   	fcall	_OSCILLATOR_Initialize
  1867                           
  1868                           ;mcc.c: 73: PIN_MANAGER_Initialize();
  1869  01E8  3181  2196  3181   	fcall	_PIN_MANAGER_Initialize
  1870                           
  1871                           ;mcc.c: 74: TMR0_Initialize();
  1872  01EB  3181  21CC         	fcall	_TMR0_Initialize
  1873  01ED  0008               	return
  1874  01EE                     __end_of_SYSTEM_Initialize:	
  1875                           
  1876                           	psect	text7
  1877  01CC                     __ptext7:	
  1878 ;; *************** function _TMR0_Initialize *****************
  1879 ;; Defined at:
  1880 ;;		line 17 in file "mcc_generated_files/tmr0.c"
  1881 ;; Parameters:    Size  Location     Type
  1882 ;;		None
  1883 ;; Auto vars:     Size  Location     Type
  1884 ;;		None
  1885 ;; Return value:  Size  Location     Type
  1886 ;;		None               void
  1887 ;; Registers used:
  1888 ;;		wreg, status,2
  1889 ;; Tracked objects:
  1890 ;;		On entry : 0/0
  1891 ;;		On exit  : 0/0
  1892 ;;		Unchanged: 0/0
  1893 ;; Data sizes:     COMMON   BANK0   BANK1   BANK2   BANK3   BANK4   BANK5   BANK6   BANK7   BANK8   BANK9  BANK10  BANK1
      +1  BANK12
  1894 ;;      Params:         0       0       0       0       0       0       0       0       0       0       0       0       
      +0       0
  1895 ;;      Locals:         0       0       0       0       0       0       0       0       0       0       0       0       
      +0       0
  1896 ;;      Temps:          1       0       0       0       0       0       0       0       0       0       0       0       
      +0       0
  1897 ;;      Totals:         1       0       0       0       0       0       0       0       0       0       0       0       
      +0       0
  1898 ;;Total ram usage:        1 bytes
  1899 ;; Hardware stack levels used:    1
  1900 ;; Hardware stack levels required when called:    2
  1901 ;; This function calls:
  1902 ;;		Nothing
  1903 ;; This function is called by:
  1904 ;;		_SYSTEM_Initialize
  1905 ;; This function uses a non-reentrant model
  1906 ;;
  1907                           
  1908                           
  1909                           ;psect for function _TMR0_Initialize
  1910  01CC                     _TMR0_Initialize:	
  1911                           
  1912                           ;tmr0.c: 22: OPTION_REG = (OPTION_REG & 0xC0) | 0xF7 & 0x3F;
  1913                           
  1914                           ;incstack = 0
  1915                           ; Regs used in _TMR0_Initialize: [wreg+status,2]
  1916  01CC  0021               	movlb	1	; select bank1
  1917  01CD  0815               	movf	21,w	;volatile
  1918  01CE  39C0               	andlw	192
  1919  01CF  3837               	iorlw	55
  1920  01D0  0095               	movwf	21	;volatile
  1921                           
  1922                           ;tmr0.c: 25: TMR0 = 0x03;
  1923  01D1  3003               	movlw	3
  1924  01D2  0020               	movlb	0	; select bank0
  1925  01D3  0095               	movwf	21	;volatile
  1926                           
  1927                           ;tmr0.c: 28: timer0ReloadVal= 3;
  1928  01D4  3003               	movlw	3
  1929  01D5  00F1               	movwf	??_TMR0_Initialize
  1930  01D6  0871               	movf	??_TMR0_Initialize,w
  1931  01D7  00B1               	movwf	_timer0ReloadVal	;volatile
  1932                           
  1933                           ;tmr0.c: 31: INTCONbits.TMR0IF = 0;
  1934  01D8  110B               	bcf	11,2	;volatile
  1935                           
  1936                           ;tmr0.c: 33: INTCONbits.TMR0IE = 1;
  1937  01D9  168B               	bsf	11,5	;volatile
  1938  01DA  0008               	return
  1939  01DB                     __end_of_TMR0_Initialize:	
  1940                           
  1941                           	psect	text8
  1942  0196                     __ptext8:	
  1943 ;; *************** function _PIN_MANAGER_Initialize *****************
  1944 ;; Defined at:
  1945 ;;		line 50 in file "mcc_generated_files/pin_manager.c"
  1946 ;; Parameters:    Size  Location     Type
  1947 ;;		None
  1948 ;; Auto vars:     Size  Location     Type
  1949 ;;		None
  1950 ;; Return value:  Size  Location     Type
  1951 ;;		None               void
  1952 ;; Registers used:
  1953 ;;		wreg, status,2
  1954 ;; Tracked objects:
  1955 ;;		On entry : 0/0
  1956 ;;		On exit  : 0/0
  1957 ;;		Unchanged: 0/0
  1958 ;; Data sizes:     COMMON   BANK0   BANK1   BANK2   BANK3   BANK4   BANK5   BANK6   BANK7   BANK8   BANK9  BANK10  BANK1
      +1  BANK12
  1959 ;;      Params:         0       0       0       0       0       0       0       0       0       0       0       0       
      +0       0
  1960 ;;      Locals:         0       0       0       0       0       0       0       0       0       0       0       0       
      +0       0
  1961 ;;      Temps:          0       0       0       0       0       0       0       0       0       0       0       0       
      +0       0
  1962 ;;      Totals:         0       0       0       0       0       0       0       0       0       0       0       0       
      +0       0
  1963 ;;Total ram usage:        0 bytes
  1964 ;; Hardware stack levels used:    1
  1965 ;; Hardware stack levels required when called:    2
  1966 ;; This function calls:
  1967 ;;		Nothing
  1968 ;; This function is called by:
  1969 ;;		_SYSTEM_Initialize
  1970 ;; This function uses a non-reentrant model
  1971 ;;
  1972                           
  1973                           
  1974                           ;psect for function _PIN_MANAGER_Initialize
  1975  0196                     _PIN_MANAGER_Initialize:	
  1976                           
  1977                           ;pin_manager.c: 52: LATA = 0x00;
  1978                           
  1979                           ;incstack = 0
  1980                           ; Regs used in _PIN_MANAGER_Initialize: [wreg+status,2]
  1981  0196  0022               	movlb	2	; select bank2
  1982  0197  018C               	clrf	12	;volatile
  1983                           
  1984                           ;pin_manager.c: 53: TRISA = 0x3F;
  1985  0198  303F               	movlw	63
  1986  0199  0021               	movlb	1	; select bank1
  1987  019A  008C               	movwf	12	;volatile
  1988                           
  1989                           ;pin_manager.c: 54: ANSELA = 0x17;
  1990  019B  3017               	movlw	23
  1991  019C  0023               	movlb	3	; select bank3
  1992  019D  008C               	movwf	12	;volatile
  1993                           
  1994                           ;pin_manager.c: 55: WPUA = 0x00;
  1995  019E  0024               	movlb	4	; select bank4
  1996  019F  018C               	clrf	12	;volatile
  1997                           
  1998                           ;pin_manager.c: 57: LATB = 0x00;
  1999  01A0  0022               	movlb	2	; select bank2
  2000  01A1  018D               	clrf	13	;volatile
  2001                           
  2002                           ;pin_manager.c: 58: TRISB = 0xF0;
  2003  01A2  30F0               	movlw	240
  2004  01A3  0021               	movlb	1	; select bank1
  2005  01A4  008D               	movwf	13	;volatile
  2006                           
  2007                           ;pin_manager.c: 59: ANSELB = 0xF0;
  2008  01A5  30F0               	movlw	240
  2009  01A6  0023               	movlb	3	; select bank3
  2010  01A7  008D               	movwf	13	;volatile
  2011                           
  2012                           ;pin_manager.c: 60: WPUB = 0x00;
  2013  01A8  0024               	movlb	4	; select bank4
  2014  01A9  018D               	clrf	13	;volatile
  2015                           
  2016                           ;pin_manager.c: 62: LATC = 0x00;
  2017  01AA  0022               	movlb	2	; select bank2
  2018  01AB  018E               	clrf	14	;volatile
  2019                           
  2020                           ;pin_manager.c: 63: TRISC = 0xE7;
  2021  01AC  30E7               	movlw	231
  2022  01AD  0021               	movlb	1	; select bank1
  2023  01AE  008E               	movwf	14	;volatile
  2024                           
  2025                           ;pin_manager.c: 64: ANSELC = 0xC7;
  2026  01AF  30C7               	movlw	199
  2027  01B0  0023               	movlb	3	; select bank3
  2028  01B1  008E               	movwf	14	;volatile
  2029                           
  2030                           ;pin_manager.c: 65: WPUC = 0x00;
  2031  01B2  0024               	movlb	4	; select bank4
  2032  01B3  018E               	clrf	14	;volatile
  2033                           
  2034                           ;pin_manager.c: 67: OPTION_REGbits.nWPUEN = 0x01;
  2035  01B4  0021               	movlb	1	; select bank1
  2036  01B5  1795               	bsf	21,7	;volatile
  2037                           
  2038                           ;pin_manager.c: 69: APFCON0 = 0x00;
  2039  01B6  0022               	movlb	2	; select bank2
  2040  01B7  019D               	clrf	29	;volatile
  2041                           
  2042                           ;pin_manager.c: 71: APFCON1 = 0x00;
  2043  01B8  019E               	clrf	30	;volatile
  2044  01B9  0008               	return
  2045  01BA                     __end_of_PIN_MANAGER_Initialize:	
  2046                           
  2047                           	psect	text9
  2048  01FB                     __ptext9:	
  2049 ;; *************** function _OSCILLATOR_Initialize *****************
  2050 ;; Defined at:
  2051 ;;		line 77 in file "mcc_generated_files/mcc.c"
  2052 ;; Parameters:    Size  Location     Type
  2053 ;;		None
  2054 ;; Auto vars:     Size  Location     Type
  2055 ;;		None
  2056 ;; Return value:  Size  Location     Type
  2057 ;;		None               void
  2058 ;; Registers used:
  2059 ;;		wreg, status,2
  2060 ;; Tracked objects:
  2061 ;;		On entry : 0/0
  2062 ;;		On exit  : 0/0
  2063 ;;		Unchanged: 0/0
  2064 ;; Data sizes:     COMMON   BANK0   BANK1   BANK2   BANK3   BANK4   BANK5   BANK6   BANK7   BANK8   BANK9  BANK10  BANK1
      +1  BANK12
  2065 ;;      Params:         0       0       0       0       0       0       0       0       0       0       0       0       
      +0       0
  2066 ;;      Locals:         0       0       0       0       0       0       0       0       0       0       0       0       
      +0       0
  2067 ;;      Temps:          0       0       0       0       0       0       0       0       0       0       0       0       
      +0       0
  2068 ;;      Totals:         0       0       0       0       0       0       0       0       0       0       0       0       
      +0       0
  2069 ;;Total ram usage:        0 bytes
  2070 ;; Hardware stack levels used:    1
  2071 ;; Hardware stack levels required when called:    2
  2072 ;; This function calls:
  2073 ;;		Nothing
  2074 ;; This function is called by:
  2075 ;;		_SYSTEM_Initialize
  2076 ;; This function uses a non-reentrant model
  2077 ;;
  2078                           
  2079                           
  2080                           ;psect for function _OSCILLATOR_Initialize
  2081  01FB                     _OSCILLATOR_Initialize:	
  2082                           
  2083                           ;mcc.c: 80: OSCCON = 0x6A;
  2084                           
  2085                           ;incstack = 0
  2086                           ; Regs used in _OSCILLATOR_Initialize: [wreg+status,2]
  2087  01FB  306A               	movlw	106
  2088  01FC  0021               	movlb	1	; select bank1
  2089  01FD  0099               	movwf	25	;volatile
  2090                           
  2091                           ;mcc.c: 82: OSCSTAT = 0x00;
  2092  01FE  019A               	clrf	26	;volatile
  2093                           
  2094                           ;mcc.c: 84: OSCTUNE = 0x00;
  2095  01FF  0198               	clrf	24	;volatile
  2096  0200  0008               	return
  2097  0201                     __end_of_OSCILLATOR_Initialize:	
  2098                           
  2099                           	psect	intentry
  2100  0004                     __pintentry:	
  2101 ;; *************** function _INTERRUPT_InterruptManager *****************
  2102 ;; Defined at:
  2103 ;;		line 52 in file "mcc_generated_files/interrupt_manager.c"
  2104 ;; Parameters:    Size  Location     Type
  2105 ;;		None
  2106 ;; Auto vars:     Size  Location     Type
  2107 ;;		None
  2108 ;; Return value:  Size  Location     Type
  2109 ;;		None               void
  2110 ;; Registers used:
  2111 ;;		wreg, status,2, status,0, pclath, cstack
  2112 ;; Tracked objects:
  2113 ;;		On entry : 0/0
  2114 ;;		On exit  : 0/0
  2115 ;;		Unchanged: 0/0
  2116 ;; Data sizes:     COMMON   BANK0   BANK1   BANK2   BANK3   BANK4   BANK5   BANK6   BANK7   BANK8   BANK9  BANK10  BANK1
      +1  BANK12
  2117 ;;      Params:         0       0       0       0       0       0       0       0       0       0       0       0       
      +0       0
  2118 ;;      Locals:         0       0       0       0       0       0       0       0       0       0       0       0       
      +0       0
  2119 ;;      Temps:          1       0       0       0       0       0       0       0       0       0       0       0       
      +0       0
  2120 ;;      Totals:         1       0       0       0       0       0       0       0       0       0       0       0       
      +0       0
  2121 ;;Total ram usage:        1 bytes
  2122 ;; Hardware stack levels used:    1
  2123 ;; Hardware stack levels required when called:    1
  2124 ;; This function calls:
  2125 ;;		_TMR0_ISR
  2126 ;; This function is called by:
  2127 ;;		Interrupt level 1
  2128 ;; This function uses a non-reentrant model
  2129 ;;
  2130                           
  2131  0004                     _INTERRUPT_InterruptManager:	
  2132                           
  2133                           ;incstack = 0
  2134                           ; Regs used in _INTERRUPT_InterruptManager: [wreg+status,2+status,0+pclath+cstack]
  2135  0004  3180               	pagesel	$
  2136  0005  0020               	movlb	0	; select bank0
  2137  0006  087F               	movf	127,w
  2138  0007  00F0               	movwf	??_INTERRUPT_InterruptManager
  2139                           
  2140                           ;interrupt_manager.c: 55: if(INTCONbits.TMR0IE == 1 && INTCONbits.TMR0IF == 1)
  2141  0008  1A8B               	btfsc	11,5	;volatile
  2142  0009  1D0B               	btfss	11,2	;volatile
  2143  000A  280D               	goto	i1l88
  2144                           
  2145                           ;interrupt_manager.c: 56: {
  2146                           ;interrupt_manager.c: 57: TMR0_ISR();
  2147  000B  3181  21EE         	fcall	_TMR0_ISR
  2148  000D                     i1l88:	
  2149                           ;interrupt_manager.c: 59: else
  2150                           ;interrupt_manager.c: 60: {
  2151                           
  2152                           ;interrupt_manager.c: 58: }
  2153                           
  2154  000D  0870               	movf	??_INTERRUPT_InterruptManager,w
  2155  000E  0020               	movlb	0	; select bank0
  2156  000F  00FF               	movwf	127
  2157  0010  0009               	retfie
  2158  0011                     __end_of_INTERRUPT_InterruptManager:	
  2159                           
  2160                           	psect	text11
  2161  01EE                     __ptext11:	
  2162 ;; *************** function _TMR0_ISR *****************
  2163 ;; Defined at:
  2164 ;;		line 53 in file "mcc_generated_files/tmr0.c"
  2165 ;; Parameters:    Size  Location     Type
  2166 ;;		None
  2167 ;; Auto vars:     Size  Location     Type
  2168 ;;		None
  2169 ;; Return value:  Size  Location     Type
  2170 ;;		None               void
  2171 ;; Registers used:
  2172 ;;		wreg
  2173 ;; Tracked objects:
  2174 ;;		On entry : 0/0
  2175 ;;		On exit  : 0/0
  2176 ;;		Unchanged: 0/0
  2177 ;; Data sizes:     COMMON   BANK0   BANK1   BANK2   BANK3   BANK4   BANK5   BANK6   BANK7   BANK8   BANK9  BANK10  BANK1
      +1  BANK12
  2178 ;;      Params:         0       0       0       0       0       0       0       0       0       0       0       0       
      +0       0
  2179 ;;      Locals:         0       0       0       0       0       0       0       0       0       0       0       0       
      +0       0
  2180 ;;      Temps:          0       0       0       0       0       0       0       0       0       0       0       0       
      +0       0
  2181 ;;      Totals:         0       0       0       0       0       0       0       0       0       0       0       0       
      +0       0
  2182 ;;Total ram usage:        0 bytes
  2183 ;; Hardware stack levels used:    1
  2184 ;; This function calls:
  2185 ;;		Nothing
  2186 ;; This function is called by:
  2187 ;;		_INTERRUPT_InterruptManager
  2188 ;; This function uses a non-reentrant model
  2189 ;;
  2190                           
  2191                           
  2192                           ;psect for function _TMR0_ISR
  2193  01EE                     _TMR0_ISR:	
  2194                           
  2195                           ;tmr0.c: 55: if (INTCONbits.TMR0IF==1) {
  2196                           
  2197                           ;incstack = 0
  2198                           ; Regs used in _TMR0_ISR: [wreg]
  2199  01EE  1D0B               	btfss	11,2	;volatile
  2200  01EF  0008               	return
  2201                           
  2202                           ;tmr0.c: 57: TMR0 = timer0ReloadVal;
  2203  01F0  0020               	movlb	0	; select bank0
  2204  01F1  0831               	movf	_timer0ReloadVal,w	;volatile
  2205  01F2  0095               	movwf	21	;volatile
  2206                           
  2207                           ;tmr0.c: 59: INTCONbits.TMR0IF = 0;
  2208  01F3  110B               	bcf	11,2	;volatile
  2209  01F4  0008               	return
  2210  01F5                     __end_of_TMR0_ISR:	
  2211  007E                     btemp	set	126	;btemp
  2212  007E                     wtemp	set	126
  2213  007E                     wtemp0	set	126
  2214  0080                     wtemp1	set	128
  2215  0082                     wtemp2	set	130
  2216  0084                     wtemp3	set	132
  2217  0086                     wtemp4	set	134
  2218  0088                     wtemp5	set	136
  2219  007F                     wtemp6	set	127
  2220  007E                     ttemp	set	126
  2221  007E                     ttemp0	set	126
  2222  0081                     ttemp1	set	129
  2223  0084                     ttemp2	set	132
  2224  0087                     ttemp3	set	135
  2225  007F                     ttemp4	set	127
  2226  007E                     ltemp	set	126
  2227  007E                     ltemp0	set	126
  2228  0082                     ltemp1	set	130
  2229  0086                     ltemp2	set	134
  2230  0080                     ltemp3	set	128


Data Sizes:
    Strings     0
    Constant    0
    Data        10
    BSS         6
    Persistent  3
    Stack       0

Auto Spaces:
    Space          Size  Autos    Used
    COMMON           14     11      12
    BANK0            80      2      20
    BANK1            80      0       0
    BANK2            80      0       0
    BANK3            80      0       0
    BANK4            80      0       0
    BANK5            80      0       0
    BANK6            80      0       0
    BANK7            80      0       0
    BANK8            80      0       0
    BANK9            80      0       0
    BANK10           80      0       0
    BANK11           80      0       0
    BANK12           48      0       0

Pointer List with Targets:

    None.

Critical Paths under _main in COMMON

    _main->_displayNumber
    _displayNumber->___lwdiv
    _SYSTEM_Initialize->_TMR0_Initialize

Critical Paths under _INTERRUPT_InterruptManager in COMMON

    None.

Critical Paths under _main in BANK0

    _main->_displayNumber

Critical Paths under _INTERRUPT_InterruptManager in BANK0

    None.

Critical Paths under _main in BANK1

    None.

Critical Paths under _INTERRUPT_InterruptManager in BANK1

    None.

Critical Paths under _main in BANK2

    None.

Critical Paths under _INTERRUPT_InterruptManager in BANK2

    None.

Critical Paths under _main in BANK3

    None.

Critical Paths under _INTERRUPT_InterruptManager in BANK3

    None.

Critical Paths under _main in BANK4

    None.

Critical Paths under _INTERRUPT_InterruptManager in BANK4

    None.

Critical Paths under _main in BANK5

    None.

Critical Paths under _INTERRUPT_InterruptManager in BANK5

    None.

Critical Paths under _main in BANK6

    None.

Critical Paths under _INTERRUPT_InterruptManager in BANK6

    None.

Critical Paths under _main in BANK7

    None.

Critical Paths under _INTERRUPT_InterruptManager in BANK7

    None.

Critical Paths under _main in BANK8

    None.

Critical Paths under _INTERRUPT_InterruptManager in BANK8

    None.

Critical Paths under _main in BANK9

    None.

Critical Paths under _INTERRUPT_InterruptManager in BANK9

    None.

Critical Paths under _main in BANK10

    None.

Critical Paths under _INTERRUPT_InterruptManager in BANK10

    None.

Critical Paths under _main in BANK11

    None.

Critical Paths under _INTERRUPT_InterruptManager in BANK11

    None.

Critical Paths under _main in BANK12

    None.

Critical Paths under _INTERRUPT_InterruptManager in BANK12

    None.

Call Graph Tables:

 ---------------------------------------------------------------------------------
 (Depth) Function   	        Calls       Base Space   Used Autos Params    Refs
 ---------------------------------------------------------------------------------
 (0) _main                                                 0     0      0    1304
                  _SYSTEM_Initialize
                       _controlRelay
                      _displayNumber
 ---------------------------------------------------------------------------------
 (1) _displayNumber                                        4     2      2    1304
                                              9 COMMON     2     0      2
                                              0 BANK0      2     2      0
                            ___lwdiv
                            ___lwmod
                         _writeDigit
 ---------------------------------------------------------------------------------
 (2) _writeDigit                                           3     3      0      90
                                              1 COMMON     3     3      0
 ---------------------------------------------------------------------------------
 (2) ___lwmod                                              6     2      4     477
                                              1 COMMON     6     2      4
 ---------------------------------------------------------------------------------
 (2) ___lwdiv                                              8     4      4     480
                                              1 COMMON     8     4      4
 ---------------------------------------------------------------------------------
 (1) _controlRelay                                         3     3      0       0
                                              1 COMMON     3     3      0
 ---------------------------------------------------------------------------------
 (1) _SYSTEM_Initialize                                    0     0      0       0
              _OSCILLATOR_Initialize
             _PIN_MANAGER_Initialize
                    _TMR0_Initialize
 ---------------------------------------------------------------------------------
 (2) _TMR0_Initialize                                      1     1      0       0
                                              1 COMMON     1     1      0
 ---------------------------------------------------------------------------------
 (2) _PIN_MANAGER_Initialize                               0     0      0       0
 ---------------------------------------------------------------------------------
 (2) _OSCILLATOR_Initialize                                0     0      0       0
 ---------------------------------------------------------------------------------
 Estimated maximum stack depth 2
 ---------------------------------------------------------------------------------
 (Depth) Function   	        Calls       Base Space   Used Autos Params    Refs
 ---------------------------------------------------------------------------------
 (3) _INTERRUPT_InterruptManager                           1     1      0       0
                                              0 COMMON     1     1      0
                           _TMR0_ISR
 ---------------------------------------------------------------------------------
 (4) _TMR0_ISR                                             0     0      0       0
 ---------------------------------------------------------------------------------
 Estimated maximum stack depth 4
 ---------------------------------------------------------------------------------

 Call Graph Graphs:

 _main (ROOT)
   _SYSTEM_Initialize
     _OSCILLATOR_Initialize
     _PIN_MANAGER_Initialize
     _TMR0_Initialize
   _controlRelay
   _displayNumber
     ___lwdiv
     ___lwmod
     _writeDigit

 _INTERRUPT_InterruptManager (ROOT)
   _TMR0_ISR

 Address spaces:
Name               Size   Autos  Total    Cost      Usage
BIGRAM             3F0      0       0       0        0.0%
EEDATA             100      0       0       0        0.0%
NULL                 0      0       0       0        0.0%
CODE                 0      0       0       0        0.0%
BITCOMMON            E      0       0       1        0.0%
BITSFR0              0      0       0       1        0.0%
SFR0                 0      0       0       1        0.0%
COMMON               E      B       C       2       85.7%
BITSFR1              0      0       0       2        0.0%
SFR1                 0      0       0       2        0.0%
BITSFR2              0      0       0       3        0.0%
SFR2                 0      0       0       3        0.0%
STACK                0      0       0       3        0.0%
BITBANK0            50      0       0       4        0.0%
BITSFR3              0      0       0       4        0.0%
SFR3                 0      0       0       4        0.0%
BANK0               50      2      14       5       25.0%
BITSFR4              0      0       0       5        0.0%
SFR4                 0      0       0       5        0.0%
BITBANK1            50      0       0       6        0.0%
BITSFR5              0      0       0       6        0.0%
SFR5                 0      0       0       6        0.0%
BANK1               50      0       0       7        0.0%
BITSFR6              0      0       0       7        0.0%
SFR6                 0      0       0       7        0.0%
BITBANK2            50      0       0       8        0.0%
BITSFR7              0      0       0       8        0.0%
SFR7                 0      0       0       8        0.0%
BANK2               50      0       0       9        0.0%
BITSFR8              0      0       0       9        0.0%
SFR8                 0      0       0       9        0.0%
BITBANK3            50      0       0      10        0.0%
BITSFR9              0      0       0      10        0.0%
SFR9                 0      0       0      10        0.0%
BANK3               50      0       0      11        0.0%
BITSFR10             0      0       0      11        0.0%
SFR10                0      0       0      11        0.0%
BITBANK4            50      0       0      12        0.0%
BITSFR11             0      0       0      12        0.0%
SFR11                0      0       0      12        0.0%
BANK4               50      0       0      13        0.0%
BITSFR12             0      0       0      13        0.0%
SFR12                0      0       0      13        0.0%
BITBANK5            50      0       0      14        0.0%
BITSFR13             0      0       0      14        0.0%
SFR13                0      0       0      14        0.0%
BANK5               50      0       0      15        0.0%
BITSFR14             0      0       0      15        0.0%
SFR14                0      0       0      15        0.0%
BITBANK6            50      0       0      16        0.0%
BITSFR15             0      0       0      16        0.0%
SFR15                0      0       0      16        0.0%
BANK6               50      0       0      17        0.0%
BITSFR16             0      0       0      17        0.0%
SFR16                0      0       0      17        0.0%
BITBANK7            50      0       0      18        0.0%
BITSFR17             0      0       0      18        0.0%
SFR17                0      0       0      18        0.0%
BANK7               50      0       0      19        0.0%
BITSFR18             0      0       0      19        0.0%
SFR18                0      0       0      19        0.0%
BITSFR19             0      0       0      20        0.0%
SFR19                0      0       0      20        0.0%
ABS                  0      0      20      20        0.0%
BITBANK8            50      0       0      21        0.0%
BITSFR20             0      0       0      21        0.0%
SFR20                0      0       0      21        0.0%
BANK8               50      0       0      22        0.0%
BITSFR21             0      0       0      22        0.0%
SFR21                0      0       0      22        0.0%
BITBANK9            50      0       0      23        0.0%
BITSFR22             0      0       0      23        0.0%
SFR22                0      0       0      23        0.0%
BANK9               50      0       0      24        0.0%
BITSFR23             0      0       0      24        0.0%
SFR23                0      0       0      24        0.0%
BITBANK10           50      0       0      25        0.0%
BITSFR24             0      0       0      25        0.0%
SFR24                0      0       0      25        0.0%
BANK10              50      0       0      26        0.0%
BITSFR25             0      0       0      26        0.0%
SFR25                0      0       0      26        0.0%
BITBANK11           50      0       0      27        0.0%
BITSFR26             0      0       0      27        0.0%
SFR26                0      0       0      27        0.0%
BANK11              50      0       0      28        0.0%
BITSFR27             0      0       0      28        0.0%
SFR27                0      0       0      28        0.0%
BITBANK12           30      0       0      29        0.0%
BITSFR28             0      0       0      29        0.0%
SFR28                0      0       0      29        0.0%
BANK12              30      0       0      30        0.0%
BITSFR29             0      0       0      30        0.0%
SFR29                0      0       0      30        0.0%
BITSFR30             0      0       0      31        0.0%
SFR30                0      0       0      31        0.0%
DATA                 0      0      20      31        0.0%
BITSFR31             0      0       0      32        0.0%
SFR31                0      0       0      32        0.0%


Microchip Technology PIC Macro Assembler V1.34 build -361300703 
Symbol Table                                                                                   Tue May 14 10:03:00 2024

                        __CFG_CP$OFF 0000                                   _d1 007B  
                                 _d2 002C                                   _d3 002D  
                                 _d4 002E                      _timer0ReloadVal 0031  
                                l124 0193                                  l830 0179  
                                l832 0187                                  l860 0134  
                                l852 0116                                  l854 0122  
                                l864 013D                                  l882 0160  
                                l876 0148                                  l878 0154  
                                l886 0169                                  u305 0119  
                                u260 0185                                  u325 0123  
                                u405 0161                                  u254 017E  
                                u335 012D                                  u255 017D  
                                u345 0135                         __CFG_CPD$OFF 0000  
                                u507 00AA                                  u517 00BF  
                                u375 014B                                  u527 00D4  
                                u537 01C2                                  u395 015A  
                                u497 0095                         __CFG_BORV$LO 0000  
                                wreg 0009                         __CFG_IESO$ON 0000  
                     ?_displayNumber 0079                         __CFG_LVP$OFF 0000  
                               l1020 00E7                                 l1030 00FE  
                               l1032 0102                                 l1034 0105  
                               _LATA 010C                                 _LATB 010D  
                               _LATC 010E                                 i1l88 000D  
                               _TMR0 0015                                 _WPUA 020C  
                               _WPUB 020D                                 _WPUC 020E  
                       __CFG_WRT$OFF 0000                        __CFG_FCMEN$ON 0000  
                               _main 00D9                                 fsr0h 0005  
                               fsr1h 0007                                 fsr0l 0004  
                               indf1 0001                                 fsr1l 0006  
                               btemp 007E                        __CFG_BOREN$ON 0000  
                               ltemp 007E                                 start 0011  
                               ttemp 007E                                 wtemp 007E  
                      __CFG_MCLRE$ON 0000              __end_of_TMR0_Initialize 01DB  
                      ?_controlRelay 0070       __size_of_OSCILLATOR_Initialize 0006  
      __end_of_OSCILLATOR_Initialize 0201                                ?_main 0070  
                      __CFG_WDTE$OFF 0000                                _LATC5 0875  
                              _LATC6 0876                                _LATC7 0877  
                    __end_of___lwdiv 0142                      __end_of___lwmod 016E  
                              _TRISA 008C                                _TRISB 008D  
                              _TRISC 008E                                _Digit 0020  
                   __end_of_TMR0_ISR 01F5                                ltemp0 007E  
                              ltemp1 0082                                ltemp2 0086  
                              ltemp3 0080                                ttemp0 007E  
                              ttemp1 0081                                ttemp2 0084  
                              ttemp3 0087                                ttemp4 007F  
                              status 0003                                wtemp0 007E  
                              wtemp1 0080                                wtemp2 0082  
                              wtemp3 0084                                wtemp4 0086  
                              wtemp5 0088                                wtemp6 007F  
                    __initialization 0013                         __end_of_main 010E  
                     ??_controlRelay 0071          ?_INTERRUPT_InterruptManager 0070  
                             ??_main 007B                       __CFG_PLLEN$OFF 0000  
                    ??_displayNumber 0032                               _ANSELA 018C  
                             _ANSELB 018D                               _ANSELC 018E  
                             _OSCCON 0099                       __CFG_PWRTE$OFF 0000  
                     __CFG_STVREN$ON 0000                            ??___lwdiv 0075  
                          ??___lwmod 0075                     ?_TMR0_Initialize 0070  
                             _number 002F                    _SYSTEM_Initialize 01E5  
            __end_of__initialization 0024                   ?_SYSTEM_Initialize 0070  
                     __pcstackCOMMON 0070                         __pidataBANK0 01DB  
                ??_SYSTEM_Initialize 0072                            ?_TMR0_ISR 0070  
               displayNumber@number1 0079                       _OPTION_REGbits 0095  
          __end_of_SYSTEM_Initialize 01EE                           __pbssBANK0 002A  
               __end_of_controlRelay 01CC                           __pmaintext 00D9  
                         ??_TMR0_ISR 0070                           __pintentry 0004  
                            _APFCON0 011D                              _APFCON1 011E  
                            _OSCSTAT 009A                              _OSCTUNE 0098  
                            ___lwdiv 010E                              ___lwmod 0142  
                            __ptext1 0027                              __ptext2 016E  
                            __ptext3 0142                              __ptext4 010E  
                            __ptext5 01BA                              __ptext6 01E5  
                            __ptext7 01CC                              __ptext8 0196  
                            __ptext9 01FB                              _counter 002A  
              _OSCILLATOR_Initialize 01FB             ??_PIN_MANAGER_Initialize 0071  
         __size_of_SYSTEM_Initialize 0009                 end_of_initialization 0024  
                            init_ram 01F5                              initloop 01F6  
                   __CFG_FOSC$INTOSC 0000                __size_of_controlRelay 0012  
              __end_of_displayNumber 00D9                           _writeDigit 016E  
                       _controlRelay 01BA                    __size_of_TMR0_ISR 0007  
             ?_OSCILLATOR_Initialize 0070                  start_initialization 0013  
           __size_of_TMR0_Initialize 000F      __size_of_PIN_MANAGER_Initialize 0024  
                        __pdataBANK0 0020                          __pbssCOMMON 007B  
                          ___latbits 0002                        __pcstackBANK0 0032  
                          __pnvBANK0 002F                     ___lwdiv@dividend 0073  
             _PIN_MANAGER_Initialize 0196                          ?_writeDigit 0070  
                           ?___lwdiv 0071                             ?___lwmod 0071  
       ??_INTERRUPT_InterruptManager 0070                     ___lwdiv@quotient 0076  
                  ??_TMR0_Initialize 0071                             _LATCbits 010E  
__size_of_INTERRUPT_InterruptManager 000D                          writeDigit@i 0073  
                    writeDigit@digit 0072                             _TMR0_ISR 01EE  
                __size_of_writeDigit 0028              ??_OSCILLATOR_Initialize 0071  
                   __size_of___lwdiv 0034                     __size_of___lwmod 002C  
                    ___lwdiv@divisor 0071                      ___lwdiv@counter 0078  
                           __ptext11 01EE                        __size_of_main 0035  
             __size_of_displayNumber 00B2   __end_of_INTERRUPT_InterruptManager 0011  
         _INTERRUPT_InterruptManager 0004                           _INTCONbits 000B  
                           intlevel1 0000                     ___lwmod@dividend 0073  
            ?_PIN_MANAGER_Initialize 0070                    __CFG_CLKOUTEN$OFF 0000  
                       ??_writeDigit 0071                           _OPTION_REG 0095  
                    ___lwmod@divisor 0071                      _TMR0_Initialize 01CC  
                    ___lwmod@counter 0076                        _displayNumber 0027  
     __end_of_PIN_MANAGER_Initialize 01BA                   __end_of_writeDigit 0196  
